	.cpu cortex-m0
	.eabi_attribute 20, 1
	.eabi_attribute 21, 1
	.eabi_attribute 23, 3
	.eabi_attribute 24, 1
	.eabi_attribute 25, 1
	.eabi_attribute 26, 1
	.eabi_attribute 30, 6
	.eabi_attribute 34, 0
	.eabi_attribute 18, 4
	.file	"fds.c"
	.text
.Ltext0:
	.section	.text.is_word_aligned,"ax",%progbits
	.align	1
	.syntax unified
	.code	16
	.thumb_func
	.fpu softvfp
	.type	is_word_aligned, %function
is_word_aligned:
.LFB49:
	.file 1 "./../../../../../../components/libraries/util/app_util.h"
	.loc 1 987 0
	@ args = 0, pretend = 0, frame = 8
	@ frame_needed = 0, uses_anonymous_args = 0
	@ link register save eliminated.
	sub	sp, sp, #8
.LCFI0:
	str	r0, [sp, #4]
	.loc 1 988 0
	ldr	r3, [sp, #4]
	movs	r2, #3
	ands	r3, r2
	rsbs	r2, r3, #0
	adcs	r3, r3, r2
	uxtb	r3, r3
	.loc 1 989 0
	movs	r0, r3
	add	sp, sp, #8
	@ sp needed
	bx	lr
.LFE49:
	.size	is_word_aligned, .-is_word_aligned
	.section	.text.sd_mutex_new,"ax",%progbits
	.align	1
	.syntax unified
	.code	16
	.thumb_func
	.fpu softvfp
	.type	sd_mutex_new, %function
sd_mutex_new:
.LFB51:
	.file 2 "./../../../../../../components/softdevice/s130/headers/nrf_soc.h"
	.loc 2 383 0
	@ Naked Function: prologue and epilogue provided by programmer.
	@ args = 0, pretend = 0, frame = 0
	@ frame_needed = 0, uses_anonymous_args = 0
	.loc 2 383 0
	.syntax divided
@ 383 "./../../../../../../components/softdevice/s130/headers/nrf_soc.h" 1
	svc #43
bx r14
@ 0 "" 2
	.thumb
	.syntax unified
	nop
	movs	r0, r3
.LFE51:
	.size	sd_mutex_new, .-sd_mutex_new
	.section	.text.sd_mutex_acquire,"ax",%progbits
	.align	1
	.syntax unified
	.code	16
	.thumb_func
	.fpu softvfp
	.type	sd_mutex_acquire, %function
sd_mutex_acquire:
.LFB52:
	.loc 2 392 0
	@ Naked Function: prologue and epilogue provided by programmer.
	@ args = 0, pretend = 0, frame = 0
	@ frame_needed = 0, uses_anonymous_args = 0
	.loc 2 392 0
	.syntax divided
@ 392 "./../../../../../../components/softdevice/s130/headers/nrf_soc.h" 1
	svc #44
bx r14
@ 0 "" 2
	.thumb
	.syntax unified
	nop
	movs	r0, r3
.LFE52:
	.size	sd_mutex_acquire, .-sd_mutex_acquire
	.section	.text.sd_mutex_release,"ax",%progbits
	.align	1
	.syntax unified
	.code	16
	.thumb_func
	.fpu softvfp
	.type	sd_mutex_release, %function
sd_mutex_release:
.LFB53:
	.loc 2 400 0
	@ Naked Function: prologue and epilogue provided by programmer.
	@ args = 0, pretend = 0, frame = 0
	@ frame_needed = 0, uses_anonymous_args = 0
	.loc 2 400 0
	.syntax divided
@ 400 "./../../../../../../components/softdevice/s130/headers/nrf_soc.h" 1
	svc #45
bx r14
@ 0 "" 2
	.thumb
	.syntax unified
	nop
	movs	r0, r3
.LFE53:
	.size	sd_mutex_release, .-sd_mutex_release
	.section	.text.sd_rand_application_pool_capacity_get,"ax",%progbits
	.align	1
	.syntax unified
	.code	16
	.thumb_func
	.fpu softvfp
	.type	sd_rand_application_pool_capacity_get, %function
sd_rand_application_pool_capacity_get:
.LFB54:
	.loc 2 408 0
	@ Naked Function: prologue and epilogue provided by programmer.
	@ args = 0, pretend = 0, frame = 0
	@ frame_needed = 0, uses_anonymous_args = 0
	.loc 2 408 0
	.syntax divided
@ 408 "./../../../../../../components/softdevice/s130/headers/nrf_soc.h" 1
	svc #56
bx r14
@ 0 "" 2
	.thumb
	.syntax unified
	nop
	movs	r0, r3
.LFE54:
	.size	sd_rand_application_pool_capacity_get, .-sd_rand_application_pool_capacity_get
	.section	.text.sd_rand_application_bytes_available_get,"ax",%progbits
	.align	1
	.syntax unified
	.code	16
	.thumb_func
	.fpu softvfp
	.type	sd_rand_application_bytes_available_get, %function
sd_rand_application_bytes_available_get:
.LFB55:
	.loc 2 416 0
	@ Naked Function: prologue and epilogue provided by programmer.
	@ args = 0, pretend = 0, frame = 0
	@ frame_needed = 0, uses_anonymous_args = 0
	.loc 2 416 0
	.syntax divided
@ 416 "./../../../../../../components/softdevice/s130/headers/nrf_soc.h" 1
	svc #57
bx r14
@ 0 "" 2
	.thumb
	.syntax unified
	nop
	movs	r0, r3
.LFE55:
	.size	sd_rand_application_bytes_available_get, .-sd_rand_application_bytes_available_get
	.section	.text.sd_rand_application_vector_get,"ax",%progbits
	.align	1
	.syntax unified
	.code	16
	.thumb_func
	.fpu softvfp
	.type	sd_rand_application_vector_get, %function
sd_rand_application_vector_get:
.LFB56:
	.loc 2 426 0
	@ Naked Function: prologue and epilogue provided by programmer.
	@ args = 0, pretend = 0, frame = 0
	@ frame_needed = 0, uses_anonymous_args = 0
	.loc 2 426 0
	.syntax divided
@ 426 "./../../../../../../components/softdevice/s130/headers/nrf_soc.h" 1
	svc #58
bx r14
@ 0 "" 2
	.thumb
	.syntax unified
	nop
	movs	r0, r3
.LFE56:
	.size	sd_rand_application_vector_get, .-sd_rand_application_vector_get
	.section	.text.sd_power_reset_reason_get,"ax",%progbits
	.align	1
	.syntax unified
	.code	16
	.thumb_func
	.fpu softvfp
	.type	sd_power_reset_reason_get, %function
sd_power_reset_reason_get:
.LFB57:
	.loc 2 434 0
	@ Naked Function: prologue and epilogue provided by programmer.
	@ args = 0, pretend = 0, frame = 0
	@ frame_needed = 0, uses_anonymous_args = 0
	.loc 2 434 0
	.syntax divided
@ 434 "./../../../../../../components/softdevice/s130/headers/nrf_soc.h" 1
	svc #61
bx r14
@ 0 "" 2
	.thumb
	.syntax unified
	nop
	movs	r0, r3
.LFE57:
	.size	sd_power_reset_reason_get, .-sd_power_reset_reason_get
	.section	.text.sd_power_reset_reason_clr,"ax",%progbits
	.align	1
	.syntax unified
	.code	16
	.thumb_func
	.fpu softvfp
	.type	sd_power_reset_reason_clr, %function
sd_power_reset_reason_clr:
.LFB58:
	.loc 2 442 0
	@ Naked Function: prologue and epilogue provided by programmer.
	@ args = 0, pretend = 0, frame = 0
	@ frame_needed = 0, uses_anonymous_args = 0
	.loc 2 442 0
	.syntax divided
@ 442 "./../../../../../../components/softdevice/s130/headers/nrf_soc.h" 1
	svc #62
bx r14
@ 0 "" 2
	.thumb
	.syntax unified
	nop
	movs	r0, r3
.LFE58:
	.size	sd_power_reset_reason_clr, .-sd_power_reset_reason_clr
	.section	.text.sd_power_mode_set,"ax",%progbits
	.align	1
	.syntax unified
	.code	16
	.thumb_func
	.fpu softvfp
	.type	sd_power_mode_set, %function
sd_power_mode_set:
.LFB59:
	.loc 2 451 0
	@ Naked Function: prologue and epilogue provided by programmer.
	@ args = 0, pretend = 0, frame = 0
	@ frame_needed = 0, uses_anonymous_args = 0
	.loc 2 451 0
	.syntax divided
@ 451 "./../../../../../../components/softdevice/s130/headers/nrf_soc.h" 1
	svc #59
bx r14
@ 0 "" 2
	.thumb
	.syntax unified
	nop
	movs	r0, r3
.LFE59:
	.size	sd_power_mode_set, .-sd_power_mode_set
	.section	.text.sd_power_system_off,"ax",%progbits
	.align	1
	.syntax unified
	.code	16
	.thumb_func
	.fpu softvfp
	.type	sd_power_system_off, %function
sd_power_system_off:
.LFB60:
	.loc 2 457 0
	@ Naked Function: prologue and epilogue provided by programmer.
	@ args = 0, pretend = 0, frame = 0
	@ frame_needed = 0, uses_anonymous_args = 0
	.loc 2 457 0
	.syntax divided
@ 457 "./../../../../../../components/softdevice/s130/headers/nrf_soc.h" 1
	svc #60
bx r14
@ 0 "" 2
	.thumb
	.syntax unified
	nop
	movs	r0, r3
.LFE60:
	.size	sd_power_system_off, .-sd_power_system_off
	.section	.text.sd_power_pof_enable,"ax",%progbits
	.align	1
	.syntax unified
	.code	16
	.thumb_func
	.fpu softvfp
	.type	sd_power_pof_enable, %function
sd_power_pof_enable:
.LFB61:
	.loc 2 468 0
	@ Naked Function: prologue and epilogue provided by programmer.
	@ args = 0, pretend = 0, frame = 0
	@ frame_needed = 0, uses_anonymous_args = 0
	.loc 2 468 0
	.syntax divided
@ 468 "./../../../../../../components/softdevice/s130/headers/nrf_soc.h" 1
	svc #63
bx r14
@ 0 "" 2
	.thumb
	.syntax unified
	nop
	movs	r0, r3
.LFE61:
	.size	sd_power_pof_enable, .-sd_power_pof_enable
	.section	.text.sd_power_pof_threshold_set,"ax",%progbits
	.align	1
	.syntax unified
	.code	16
	.thumb_func
	.fpu softvfp
	.type	sd_power_pof_threshold_set, %function
sd_power_pof_threshold_set:
.LFB62:
	.loc 2 477 0
	@ Naked Function: prologue and epilogue provided by programmer.
	@ args = 0, pretend = 0, frame = 0
	@ frame_needed = 0, uses_anonymous_args = 0
	.loc 2 477 0
	.syntax divided
@ 477 "./../../../../../../components/softdevice/s130/headers/nrf_soc.h" 1
	svc #64
bx r14
@ 0 "" 2
	.thumb
	.syntax unified
	nop
	movs	r0, r3
.LFE62:
	.size	sd_power_pof_threshold_set, .-sd_power_pof_threshold_set
	.section	.text.sd_power_ramon_set,"ax",%progbits
	.align	1
	.syntax unified
	.code	16
	.thumb_func
	.fpu softvfp
	.type	sd_power_ramon_set, %function
sd_power_ramon_set:
.LFB63:
	.loc 2 485 0
	@ Naked Function: prologue and epilogue provided by programmer.
	@ args = 0, pretend = 0, frame = 0
	@ frame_needed = 0, uses_anonymous_args = 0
	.loc 2 485 0
	.syntax divided
@ 485 "./../../../../../../components/softdevice/s130/headers/nrf_soc.h" 1
	svc #65
bx r14
@ 0 "" 2
	.thumb
	.syntax unified
	nop
	movs	r0, r3
.LFE63:
	.size	sd_power_ramon_set, .-sd_power_ramon_set
	.section	.text.sd_power_ramon_clr,"ax",%progbits
	.align	1
	.syntax unified
	.code	16
	.thumb_func
	.fpu softvfp
	.type	sd_power_ramon_clr, %function
sd_power_ramon_clr:
.LFB64:
	.loc 2 493 0
	@ Naked Function: prologue and epilogue provided by programmer.
	@ args = 0, pretend = 0, frame = 0
	@ frame_needed = 0, uses_anonymous_args = 0
	.loc 2 493 0
	.syntax divided
@ 493 "./../../../../../../components/softdevice/s130/headers/nrf_soc.h" 1
	svc #66
bx r14
@ 0 "" 2
	.thumb
	.syntax unified
	nop
	movs	r0, r3
.LFE64:
	.size	sd_power_ramon_clr, .-sd_power_ramon_clr
	.section	.text.sd_power_ramon_get,"ax",%progbits
	.align	1
	.syntax unified
	.code	16
	.thumb_func
	.fpu softvfp
	.type	sd_power_ramon_get, %function
sd_power_ramon_get:
.LFB65:
	.loc 2 501 0
	@ Naked Function: prologue and epilogue provided by programmer.
	@ args = 0, pretend = 0, frame = 0
	@ frame_needed = 0, uses_anonymous_args = 0
	.loc 2 501 0
	.syntax divided
@ 501 "./../../../../../../components/softdevice/s130/headers/nrf_soc.h" 1
	svc #67
bx r14
@ 0 "" 2
	.thumb
	.syntax unified
	nop
	movs	r0, r3
.LFE65:
	.size	sd_power_ramon_get, .-sd_power_ramon_get
	.section	.text.sd_power_gpregret_set,"ax",%progbits
	.align	1
	.syntax unified
	.code	16
	.thumb_func
	.fpu softvfp
	.type	sd_power_gpregret_set, %function
sd_power_gpregret_set:
.LFB66:
	.loc 2 509 0
	@ Naked Function: prologue and epilogue provided by programmer.
	@ args = 0, pretend = 0, frame = 0
	@ frame_needed = 0, uses_anonymous_args = 0
	.loc 2 509 0
	.syntax divided
@ 509 "./../../../../../../components/softdevice/s130/headers/nrf_soc.h" 1
	svc #68
bx r14
@ 0 "" 2
	.thumb
	.syntax unified
	nop
	movs	r0, r3
.LFE66:
	.size	sd_power_gpregret_set, .-sd_power_gpregret_set
	.section	.text.sd_power_gpregret_clr,"ax",%progbits
	.align	1
	.syntax unified
	.code	16
	.thumb_func
	.fpu softvfp
	.type	sd_power_gpregret_clr, %function
sd_power_gpregret_clr:
.LFB67:
	.loc 2 517 0
	@ Naked Function: prologue and epilogue provided by programmer.
	@ args = 0, pretend = 0, frame = 0
	@ frame_needed = 0, uses_anonymous_args = 0
	.loc 2 517 0
	.syntax divided
@ 517 "./../../../../../../components/softdevice/s130/headers/nrf_soc.h" 1
	svc #69
bx r14
@ 0 "" 2
	.thumb
	.syntax unified
	nop
	movs	r0, r3
.LFE67:
	.size	sd_power_gpregret_clr, .-sd_power_gpregret_clr
	.section	.text.sd_power_gpregret_get,"ax",%progbits
	.align	1
	.syntax unified
	.code	16
	.thumb_func
	.fpu softvfp
	.type	sd_power_gpregret_get, %function
sd_power_gpregret_get:
.LFB68:
	.loc 2 525 0
	@ Naked Function: prologue and epilogue provided by programmer.
	@ args = 0, pretend = 0, frame = 0
	@ frame_needed = 0, uses_anonymous_args = 0
	.loc 2 525 0
	.syntax divided
@ 525 "./../../../../../../components/softdevice/s130/headers/nrf_soc.h" 1
	svc #70
bx r14
@ 0 "" 2
	.thumb
	.syntax unified
	nop
	movs	r0, r3
.LFE68:
	.size	sd_power_gpregret_get, .-sd_power_gpregret_get
	.section	.text.sd_power_dcdc_mode_set,"ax",%progbits
	.align	1
	.syntax unified
	.code	16
	.thumb_func
	.fpu softvfp
	.type	sd_power_dcdc_mode_set, %function
sd_power_dcdc_mode_set:
.LFB69:
	.loc 2 536 0
	@ Naked Function: prologue and epilogue provided by programmer.
	@ args = 0, pretend = 0, frame = 0
	@ frame_needed = 0, uses_anonymous_args = 0
	.loc 2 536 0
	.syntax divided
@ 536 "./../../../../../../components/softdevice/s130/headers/nrf_soc.h" 1
	svc #71
bx r14
@ 0 "" 2
	.thumb
	.syntax unified
	nop
	movs	r0, r3
.LFE69:
	.size	sd_power_dcdc_mode_set, .-sd_power_dcdc_mode_set
	.section	.text.sd_clock_hfclk_request,"ax",%progbits
	.align	1
	.syntax unified
	.code	16
	.thumb_func
	.fpu softvfp
	.type	sd_clock_hfclk_request, %function
sd_clock_hfclk_request:
.LFB70:
	.loc 2 548 0
	@ Naked Function: prologue and epilogue provided by programmer.
	@ args = 0, pretend = 0, frame = 0
	@ frame_needed = 0, uses_anonymous_args = 0
	.loc 2 548 0
	.syntax divided
@ 548 "./../../../../../../components/softdevice/s130/headers/nrf_soc.h" 1
	svc #73
bx r14
@ 0 "" 2
	.thumb
	.syntax unified
	nop
	movs	r0, r3
.LFE70:
	.size	sd_clock_hfclk_request, .-sd_clock_hfclk_request
	.section	.text.sd_clock_hfclk_release,"ax",%progbits
	.align	1
	.syntax unified
	.code	16
	.thumb_func
	.fpu softvfp
	.type	sd_clock_hfclk_release, %function
sd_clock_hfclk_release:
.LFB71:
	.loc 2 559 0
	@ Naked Function: prologue and epilogue provided by programmer.
	@ args = 0, pretend = 0, frame = 0
	@ frame_needed = 0, uses_anonymous_args = 0
	.loc 2 559 0
	.syntax divided
@ 559 "./../../../../../../components/softdevice/s130/headers/nrf_soc.h" 1
	svc #74
bx r14
@ 0 "" 2
	.thumb
	.syntax unified
	nop
	movs	r0, r3
.LFE71:
	.size	sd_clock_hfclk_release, .-sd_clock_hfclk_release
	.section	.text.sd_clock_hfclk_is_running,"ax",%progbits
	.align	1
	.syntax unified
	.code	16
	.thumb_func
	.fpu softvfp
	.type	sd_clock_hfclk_is_running, %function
sd_clock_hfclk_is_running:
.LFB72:
	.loc 2 570 0
	@ Naked Function: prologue and epilogue provided by programmer.
	@ args = 0, pretend = 0, frame = 0
	@ frame_needed = 0, uses_anonymous_args = 0
	.loc 2 570 0
	.syntax divided
@ 570 "./../../../../../../components/softdevice/s130/headers/nrf_soc.h" 1
	svc #75
bx r14
@ 0 "" 2
	.thumb
	.syntax unified
	nop
	movs	r0, r3
.LFE72:
	.size	sd_clock_hfclk_is_running, .-sd_clock_hfclk_is_running
	.section	.text.sd_app_evt_wait,"ax",%progbits
	.align	1
	.syntax unified
	.code	16
	.thumb_func
	.fpu softvfp
	.type	sd_app_evt_wait, %function
sd_app_evt_wait:
.LFB73:
	.loc 2 595 0
	@ Naked Function: prologue and epilogue provided by programmer.
	@ args = 0, pretend = 0, frame = 0
	@ frame_needed = 0, uses_anonymous_args = 0
	.loc 2 595 0
	.syntax divided
@ 595 "./../../../../../../components/softdevice/s130/headers/nrf_soc.h" 1
	svc #72
bx r14
@ 0 "" 2
	.thumb
	.syntax unified
	nop
	movs	r0, r3
.LFE73:
	.size	sd_app_evt_wait, .-sd_app_evt_wait
	.section	.text.sd_ppi_channel_enable_get,"ax",%progbits
	.align	1
	.syntax unified
	.code	16
	.thumb_func
	.fpu softvfp
	.type	sd_ppi_channel_enable_get, %function
sd_ppi_channel_enable_get:
.LFB74:
	.loc 2 603 0
	@ Naked Function: prologue and epilogue provided by programmer.
	@ args = 0, pretend = 0, frame = 0
	@ frame_needed = 0, uses_anonymous_args = 0
	.loc 2 603 0
	.syntax divided
@ 603 "./../../../../../../components/softdevice/s130/headers/nrf_soc.h" 1
	svc #32
bx r14
@ 0 "" 2
	.thumb
	.syntax unified
	nop
	movs	r0, r3
.LFE74:
	.size	sd_ppi_channel_enable_get, .-sd_ppi_channel_enable_get
	.section	.text.sd_ppi_channel_enable_set,"ax",%progbits
	.align	1
	.syntax unified
	.code	16
	.thumb_func
	.fpu softvfp
	.type	sd_ppi_channel_enable_set, %function
sd_ppi_channel_enable_set:
.LFB75:
	.loc 2 611 0
	@ Naked Function: prologue and epilogue provided by programmer.
	@ args = 0, pretend = 0, frame = 0
	@ frame_needed = 0, uses_anonymous_args = 0
	.loc 2 611 0
	.syntax divided
@ 611 "./../../../../../../components/softdevice/s130/headers/nrf_soc.h" 1
	svc #33
bx r14
@ 0 "" 2
	.thumb
	.syntax unified
	nop
	movs	r0, r3
.LFE75:
	.size	sd_ppi_channel_enable_set, .-sd_ppi_channel_enable_set
	.section	.text.sd_ppi_channel_enable_clr,"ax",%progbits
	.align	1
	.syntax unified
	.code	16
	.thumb_func
	.fpu softvfp
	.type	sd_ppi_channel_enable_clr, %function
sd_ppi_channel_enable_clr:
.LFB76:
	.loc 2 619 0
	@ Naked Function: prologue and epilogue provided by programmer.
	@ args = 0, pretend = 0, frame = 0
	@ frame_needed = 0, uses_anonymous_args = 0
	.loc 2 619 0
	.syntax divided
@ 619 "./../../../../../../components/softdevice/s130/headers/nrf_soc.h" 1
	svc #34
bx r14
@ 0 "" 2
	.thumb
	.syntax unified
	nop
	movs	r0, r3
.LFE76:
	.size	sd_ppi_channel_enable_clr, .-sd_ppi_channel_enable_clr
	.section	.text.sd_ppi_channel_assign,"ax",%progbits
	.align	1
	.syntax unified
	.code	16
	.thumb_func
	.fpu softvfp
	.type	sd_ppi_channel_assign, %function
sd_ppi_channel_assign:
.LFB77:
	.loc 2 630 0
	@ Naked Function: prologue and epilogue provided by programmer.
	@ args = 0, pretend = 0, frame = 0
	@ frame_needed = 0, uses_anonymous_args = 0
	.loc 2 630 0
	.syntax divided
@ 630 "./../../../../../../components/softdevice/s130/headers/nrf_soc.h" 1
	svc #35
bx r14
@ 0 "" 2
	.thumb
	.syntax unified
	nop
	movs	r0, r3
.LFE77:
	.size	sd_ppi_channel_assign, .-sd_ppi_channel_assign
	.section	.text.sd_ppi_group_task_enable,"ax",%progbits
	.align	1
	.syntax unified
	.code	16
	.thumb_func
	.fpu softvfp
	.type	sd_ppi_group_task_enable, %function
sd_ppi_group_task_enable:
.LFB78:
	.loc 2 639 0
	@ Naked Function: prologue and epilogue provided by programmer.
	@ args = 0, pretend = 0, frame = 0
	@ frame_needed = 0, uses_anonymous_args = 0
	.loc 2 639 0
	.syntax divided
@ 639 "./../../../../../../components/softdevice/s130/headers/nrf_soc.h" 1
	svc #36
bx r14
@ 0 "" 2
	.thumb
	.syntax unified
	nop
	movs	r0, r3
.LFE78:
	.size	sd_ppi_group_task_enable, .-sd_ppi_group_task_enable
	.section	.text.sd_ppi_group_task_disable,"ax",%progbits
	.align	1
	.syntax unified
	.code	16
	.thumb_func
	.fpu softvfp
	.type	sd_ppi_group_task_disable, %function
sd_ppi_group_task_disable:
.LFB79:
	.loc 2 648 0
	@ Naked Function: prologue and epilogue provided by programmer.
	@ args = 0, pretend = 0, frame = 0
	@ frame_needed = 0, uses_anonymous_args = 0
	.loc 2 648 0
	.syntax divided
@ 648 "./../../../../../../components/softdevice/s130/headers/nrf_soc.h" 1
	svc #37
bx r14
@ 0 "" 2
	.thumb
	.syntax unified
	nop
	movs	r0, r3
.LFE79:
	.size	sd_ppi_group_task_disable, .-sd_ppi_group_task_disable
	.section	.text.sd_ppi_group_assign,"ax",%progbits
	.align	1
	.syntax unified
	.code	16
	.thumb_func
	.fpu softvfp
	.type	sd_ppi_group_assign, %function
sd_ppi_group_assign:
.LFB80:
	.loc 2 658 0
	@ Naked Function: prologue and epilogue provided by programmer.
	@ args = 0, pretend = 0, frame = 0
	@ frame_needed = 0, uses_anonymous_args = 0
	.loc 2 658 0
	.syntax divided
@ 658 "./../../../../../../components/softdevice/s130/headers/nrf_soc.h" 1
	svc #38
bx r14
@ 0 "" 2
	.thumb
	.syntax unified
	nop
	movs	r0, r3
.LFE80:
	.size	sd_ppi_group_assign, .-sd_ppi_group_assign
	.section	.text.sd_ppi_group_get,"ax",%progbits
	.align	1
	.syntax unified
	.code	16
	.thumb_func
	.fpu softvfp
	.type	sd_ppi_group_get, %function
sd_ppi_group_get:
.LFB81:
	.loc 2 668 0
	@ Naked Function: prologue and epilogue provided by programmer.
	@ args = 0, pretend = 0, frame = 0
	@ frame_needed = 0, uses_anonymous_args = 0
	.loc 2 668 0
	.syntax divided
@ 668 "./../../../../../../components/softdevice/s130/headers/nrf_soc.h" 1
	svc #39
bx r14
@ 0 "" 2
	.thumb
	.syntax unified
	nop
	movs	r0, r3
.LFE81:
	.size	sd_ppi_group_get, .-sd_ppi_group_get
	.section	.text.sd_radio_notification_cfg_set,"ax",%progbits
	.align	1
	.syntax unified
	.code	16
	.thumb_func
	.fpu softvfp
	.type	sd_radio_notification_cfg_set, %function
sd_radio_notification_cfg_set:
.LFB82:
	.loc 2 697 0
	@ Naked Function: prologue and epilogue provided by programmer.
	@ args = 0, pretend = 0, frame = 0
	@ frame_needed = 0, uses_anonymous_args = 0
	.loc 2 697 0
	.syntax divided
@ 697 "./../../../../../../components/softdevice/s130/headers/nrf_soc.h" 1
	svc #76
bx r14
@ 0 "" 2
	.thumb
	.syntax unified
	nop
	movs	r0, r3
.LFE82:
	.size	sd_radio_notification_cfg_set, .-sd_radio_notification_cfg_set
	.section	.text.sd_ecb_block_encrypt,"ax",%progbits
	.align	1
	.syntax unified
	.code	16
	.thumb_func
	.fpu softvfp
	.type	sd_ecb_block_encrypt, %function
sd_ecb_block_encrypt:
.LFB83:
	.loc 2 713 0
	@ Naked Function: prologue and epilogue provided by programmer.
	@ args = 0, pretend = 0, frame = 0
	@ frame_needed = 0, uses_anonymous_args = 0
	.loc 2 713 0
	.syntax divided
@ 713 "./../../../../../../components/softdevice/s130/headers/nrf_soc.h" 1
	svc #77
bx r14
@ 0 "" 2
	.thumb
	.syntax unified
	nop
	movs	r0, r3
.LFE83:
	.size	sd_ecb_block_encrypt, .-sd_ecb_block_encrypt
	.section	.text.sd_ecb_blocks_encrypt,"ax",%progbits
	.align	1
	.syntax unified
	.code	16
	.thumb_func
	.fpu softvfp
	.type	sd_ecb_blocks_encrypt, %function
sd_ecb_blocks_encrypt:
.LFB84:
	.loc 2 730 0
	@ Naked Function: prologue and epilogue provided by programmer.
	@ args = 0, pretend = 0, frame = 0
	@ frame_needed = 0, uses_anonymous_args = 0
	.loc 2 730 0
	.syntax divided
@ 730 "./../../../../../../components/softdevice/s130/headers/nrf_soc.h" 1
	svc #78
bx r14
@ 0 "" 2
	.thumb
	.syntax unified
	nop
	movs	r0, r3
.LFE84:
	.size	sd_ecb_blocks_encrypt, .-sd_ecb_blocks_encrypt
	.section	.text.sd_evt_get,"ax",%progbits
	.align	1
	.syntax unified
	.code	16
	.thumb_func
	.fpu softvfp
	.type	sd_evt_get, %function
sd_evt_get:
.LFB85:
	.loc 2 741 0
	@ Naked Function: prologue and epilogue provided by programmer.
	@ args = 0, pretend = 0, frame = 0
	@ frame_needed = 0, uses_anonymous_args = 0
	.loc 2 741 0
	.syntax divided
@ 741 "./../../../../../../components/softdevice/s130/headers/nrf_soc.h" 1
	svc #82
bx r14
@ 0 "" 2
	.thumb
	.syntax unified
	nop
	movs	r0, r3
.LFE85:
	.size	sd_evt_get, .-sd_evt_get
	.section	.text.sd_temp_get,"ax",%progbits
	.align	1
	.syntax unified
	.code	16
	.thumb_func
	.fpu softvfp
	.type	sd_temp_get, %function
sd_temp_get:
.LFB86:
	.loc 2 752 0
	@ Naked Function: prologue and epilogue provided by programmer.
	@ args = 0, pretend = 0, frame = 0
	@ frame_needed = 0, uses_anonymous_args = 0
	.loc 2 752 0
	.syntax divided
@ 752 "./../../../../../../components/softdevice/s130/headers/nrf_soc.h" 1
	svc #83
bx r14
@ 0 "" 2
	.thumb
	.syntax unified
	nop
	movs	r0, r3
.LFE86:
	.size	sd_temp_get, .-sd_temp_get
	.section	.text.sd_flash_write,"ax",%progbits
	.align	1
	.syntax unified
	.code	16
	.thumb_func
	.fpu softvfp
	.type	sd_flash_write, %function
sd_flash_write:
.LFB87:
	.loc 2 784 0
	@ Naked Function: prologue and epilogue provided by programmer.
	@ args = 0, pretend = 0, frame = 0
	@ frame_needed = 0, uses_anonymous_args = 0
	.loc 2 784 0
	.syntax divided
@ 784 "./../../../../../../components/softdevice/s130/headers/nrf_soc.h" 1
	svc #41
bx r14
@ 0 "" 2
	.thumb
	.syntax unified
	nop
	movs	r0, r3
.LFE87:
	.size	sd_flash_write, .-sd_flash_write
	.section	.text.sd_flash_page_erase,"ax",%progbits
	.align	1
	.syntax unified
	.code	16
	.thumb_func
	.fpu softvfp
	.type	sd_flash_page_erase, %function
sd_flash_page_erase:
.LFB88:
	.loc 2 813 0
	@ Naked Function: prologue and epilogue provided by programmer.
	@ args = 0, pretend = 0, frame = 0
	@ frame_needed = 0, uses_anonymous_args = 0
	.loc 2 813 0
	.syntax divided
@ 813 "./../../../../../../components/softdevice/s130/headers/nrf_soc.h" 1
	svc #40
bx r14
@ 0 "" 2
	.thumb
	.syntax unified
	nop
	movs	r0, r3
.LFE88:
	.size	sd_flash_page_erase, .-sd_flash_page_erase
	.section	.text.sd_flash_protect,"ax",%progbits
	.align	1
	.syntax unified
	.code	16
	.thumb_func
	.fpu softvfp
	.type	sd_flash_protect, %function
sd_flash_protect:
.LFB89:
	.loc 2 832 0
	@ Naked Function: prologue and epilogue provided by programmer.
	@ args = 0, pretend = 0, frame = 0
	@ frame_needed = 0, uses_anonymous_args = 0
	.loc 2 832 0
	.syntax divided
@ 832 "./../../../../../../components/softdevice/s130/headers/nrf_soc.h" 1
	svc #42
bx r14
@ 0 "" 2
	.thumb
	.syntax unified
	nop
	movs	r0, r3
.LFE89:
	.size	sd_flash_protect, .-sd_flash_protect
	.section	.text.sd_radio_session_open,"ax",%progbits
	.align	1
	.syntax unified
	.code	16
	.thumb_func
	.fpu softvfp
	.type	sd_radio_session_open, %function
sd_radio_session_open:
.LFB90:
	.loc 2 854 0
	@ Naked Function: prologue and epilogue provided by programmer.
	@ args = 0, pretend = 0, frame = 0
	@ frame_needed = 0, uses_anonymous_args = 0
	.loc 2 854 0
	.syntax divided
@ 854 "./../../../../../../components/softdevice/s130/headers/nrf_soc.h" 1
	svc #79
bx r14
@ 0 "" 2
	.thumb
	.syntax unified
	nop
	movs	r0, r3
.LFE90:
	.size	sd_radio_session_open, .-sd_radio_session_open
	.section	.text.sd_radio_session_close,"ax",%progbits
	.align	1
	.syntax unified
	.code	16
	.thumb_func
	.fpu softvfp
	.type	sd_radio_session_close, %function
sd_radio_session_close:
.LFB91:
	.loc 2 867 0
	@ Naked Function: prologue and epilogue provided by programmer.
	@ args = 0, pretend = 0, frame = 0
	@ frame_needed = 0, uses_anonymous_args = 0
	.loc 2 867 0
	.syntax divided
@ 867 "./../../../../../../components/softdevice/s130/headers/nrf_soc.h" 1
	svc #80
bx r14
@ 0 "" 2
	.thumb
	.syntax unified
	nop
	movs	r0, r3
.LFE91:
	.size	sd_radio_session_close, .-sd_radio_session_close
	.section	.text.sd_radio_request,"ax",%progbits
	.align	1
	.syntax unified
	.code	16
	.thumb_func
	.fpu softvfp
	.type	sd_radio_request, %function
sd_radio_request:
.LFB92:
	.loc 2 899 0
	@ Naked Function: prologue and epilogue provided by programmer.
	@ args = 0, pretend = 0, frame = 0
	@ frame_needed = 0, uses_anonymous_args = 0
	.loc 2 899 0
	.syntax divided
@ 899 "./../../../../../../components/softdevice/s130/headers/nrf_soc.h" 1
	svc #81
bx r14
@ 0 "" 2
	.thumb
	.syntax unified
	nop
	movs	r0, r3
.LFE92:
	.size	sd_radio_request, .-sd_radio_request
	.section	.fs_data,"aw",%progbits
	.align	2
	.type	fs_config, %object
	.size	fs_config, 16
fs_config:
	.space	8
	.word	fs_event_handler
	.byte	3
	.byte	-1
	.space	2
	.section	.rodata.m_fds_tl_dirty,"a",%progbits
	.align	2
	.type	m_fds_tl_dirty, %object
	.size	m_fds_tl_dirty, 4
m_fds_tl_dirty:
	.short	0
	.short	-1
	.section	.bss.m_flags,"aw",%nobits
	.type	m_flags, %object
	.size	m_flags, 1
m_flags:
	.space	1
	.section	.bss.m_users,"aw",%nobits
	.type	m_users, %object
	.size	m_users, 1
m_users:
	.space	1
	.section	.bss.m_cb_table,"aw",%nobits
	.align	2
	.type	m_cb_table, %object
	.size	m_cb_table, 32
m_cb_table:
	.space	32
	.section	.bss.m_latest_rec_id,"aw",%nobits
	.align	2
	.type	m_latest_rec_id, %object
	.size	m_latest_rec_id, 4
m_latest_rec_id:
	.space	4
	.section	.bss.m_op_queue,"aw",%nobits
	.align	2
	.type	m_op_queue, %object
	.size	m_op_queue, 120
m_op_queue:
	.space	120
	.section	.bss.m_chunk_queue,"aw",%nobits
	.align	2
	.type	m_chunk_queue, %object
	.size	m_chunk_queue, 72
m_chunk_queue:
	.space	72
	.section	.bss.m_pages,"aw",%nobits
	.align	2
	.type	m_pages, %object
	.size	m_pages, 32
m_pages:
	.space	32
	.section	.bss.m_swap_page,"aw",%nobits
	.align	2
	.type	m_swap_page, %object
	.size	m_swap_page, 8
m_swap_page:
	.space	8
	.section	.bss.m_gc,"aw",%nobits
	.align	2
	.type	m_gc, %object
	.size	m_gc, 16
m_gc:
	.space	16
	.section	.text.flag_set,"ax",%progbits
	.align	1
	.syntax unified
	.code	16
	.thumb_func
	.fpu softvfp
	.type	flag_set, %function
flag_set:
.LFB111:
	.file 3 "E:\\personnelpositioning\\core\\nRF5_SDK_12.3.0_d7731ad\\components\\libraries\\fds\\fds.c"
	.loc 3 99 0
	@ args = 0, pretend = 0, frame = 8
	@ frame_needed = 0, uses_anonymous_args = 0
	@ link register save eliminated.
	sub	sp, sp, #8
.LCFI1:
	movs	r2, r0
	mov	r3, sp
	adds	r3, r3, #7
	strb	r2, [r3]
	.loc 3 101 0
	ldr	r3, .L46
	ldrb	r2, [r3]
	mov	r3, sp
	adds	r3, r3, #7
	ldrb	r3, [r3]
	orrs	r3, r2
	uxtb	r2, r3
	ldr	r3, .L46
	strb	r2, [r3]
	.loc 3 103 0
	nop
	add	sp, sp, #8
	@ sp needed
	bx	lr
.L47:
	.align	2
.L46:
	.word	m_flags
.LFE111:
	.size	flag_set, .-flag_set
	.section	.text.flag_clear,"ax",%progbits
	.align	1
	.syntax unified
	.code	16
	.thumb_func
	.fpu softvfp
	.type	flag_clear, %function
flag_clear:
.LFB112:
	.loc 3 107 0
	@ args = 0, pretend = 0, frame = 8
	@ frame_needed = 0, uses_anonymous_args = 0
	@ link register save eliminated.
	sub	sp, sp, #8
.LCFI2:
	movs	r2, r0
	mov	r3, sp
	adds	r3, r3, #7
	strb	r2, [r3]
	.loc 3 109 0
	mov	r3, sp
	adds	r3, r3, #7
	ldrb	r3, [r3]
	sxtb	r3, r3
	mvns	r3, r3
	sxtb	r3, r3
	ldr	r2, .L49
	ldrb	r2, [r2]
	sxtb	r2, r2
	ands	r3, r2
	sxtb	r3, r3
	uxtb	r2, r3
	ldr	r3, .L49
	strb	r2, [r3]
	.loc 3 111 0
	nop
	add	sp, sp, #8
	@ sp needed
	bx	lr
.L50:
	.align	2
.L49:
	.word	m_flags
.LFE112:
	.size	flag_clear, .-flag_clear
	.section	.text.flag_is_set,"ax",%progbits
	.align	1
	.syntax unified
	.code	16
	.thumb_func
	.fpu softvfp
	.type	flag_is_set, %function
flag_is_set:
.LFB113:
	.loc 3 115 0
	@ args = 0, pretend = 0, frame = 8
	@ frame_needed = 0, uses_anonymous_args = 0
	@ link register save eliminated.
	sub	sp, sp, #8
.LCFI3:
	movs	r2, r0
	mov	r3, sp
	adds	r3, r3, #7
	strb	r2, [r3]
	.loc 3 116 0
	ldr	r3, .L53
	ldrb	r3, [r3]
	mov	r2, sp
	adds	r2, r2, #7
	ldrb	r2, [r2]
	ands	r3, r2
	uxtb	r3, r3
	subs	r2, r3, #1
	sbcs	r3, r3, r2
	uxtb	r3, r3
	.loc 3 117 0
	movs	r0, r3
	add	sp, sp, #8
	@ sp needed
	bx	lr
.L54:
	.align	2
.L53:
	.word	m_flags
.LFE113:
	.size	flag_is_set, .-flag_is_set
	.section	.text.event_send,"ax",%progbits
	.align	1
	.syntax unified
	.code	16
	.thumb_func
	.fpu softvfp
	.type	event_send, %function
event_send:
.LFB114:
	.loc 3 121 0
	@ args = 0, pretend = 0, frame = 16
	@ frame_needed = 0, uses_anonymous_args = 0
	push	{lr}
.LCFI4:
	sub	sp, sp, #20
.LCFI5:
	str	r0, [sp, #4]
.LBB2:
	.loc 3 122 0
	movs	r3, #0
	str	r3, [sp, #12]
	b	.L56
.L58:
	.loc 3 124 0
	ldr	r3, .L59
	ldr	r2, [sp, #12]
	lsls	r2, r2, #2
	ldr	r3, [r2, r3]
	cmp	r3, #0
	beq	.L57
	.loc 3 126 0
	ldr	r3, .L59
	ldr	r2, [sp, #12]
	lsls	r2, r2, #2
	ldr	r3, [r2, r3]
	ldr	r2, [sp, #4]
	movs	r0, r2
	blx	r3
.LVL0:
.L57:
	.loc 3 122 0 discriminator 2
	ldr	r3, [sp, #12]
	adds	r3, r3, #1
	str	r3, [sp, #12]
.L56:
	.loc 3 122 0 is_stmt 0 discriminator 1
	ldr	r3, [sp, #12]
	cmp	r3, #7
	bls	.L58
.LBE2:
	.loc 3 129 0 is_stmt 1
	nop
	add	sp, sp, #20
	@ sp needed
	pop	{pc}
.L60:
	.align	2
.L59:
	.word	m_cb_table
.LFE114:
	.size	event_send, .-event_send
	.section	.text.event_prepare,"ax",%progbits
	.align	1
	.syntax unified
	.code	16
	.thumb_func
	.fpu softvfp
	.type	event_prepare, %function
event_prepare:
.LFB115:
	.loc 3 133 0
	@ args = 0, pretend = 0, frame = 8
	@ frame_needed = 0, uses_anonymous_args = 0
	@ link register save eliminated.
	sub	sp, sp, #8
.LCFI6:
	str	r0, [sp, #4]
	str	r1, [sp]
	.loc 3 134 0
	ldr	r3, [sp, #4]
	ldrb	r3, [r3]
	cmp	r3, #6
	bhi	.L71
	lsls	r2, r3, #2
	ldr	r3, .L72
	adds	r3, r2, r3
	ldr	r3, [r3]
	mov	pc, r3
	.section	.rodata.event_prepare,"a",%progbits
	.align	2
.L64:
	.word	.L71
	.word	.L63
	.word	.L65
	.word	.L66
	.word	.L67
	.word	.L68
	.word	.L69
	.section	.text.event_prepare
.L63:
	.loc 3 137 0
	ldr	r3, [sp]
	movs	r2, #0
	strb	r2, [r3]
	.loc 3 138 0
	b	.L70
.L65:
	.loc 3 141 0
	ldr	r3, [sp]
	movs	r2, #1
	strb	r2, [r3]
	.loc 3 142 0
	ldr	r3, [sp, #4]
	ldrh	r2, [r3, #8]
	ldr	r3, [sp]
	strh	r2, [r3, #12]
	.loc 3 143 0
	ldr	r3, [sp, #4]
	ldrh	r2, [r3, #4]
	ldr	r3, [sp]
	strh	r2, [r3, #14]
	.loc 3 144 0
	ldr	r3, [sp, #4]
	ldr	r2, [r3, #12]
	ldr	r3, [sp]
	str	r2, [r3, #8]
	.loc 3 145 0
	b	.L70
.L66:
	.loc 3 148 0
	ldr	r3, [sp]
	movs	r2, #2
	strb	r2, [r3]
	.loc 3 149 0
	ldr	r3, [sp, #4]
	ldrh	r2, [r3, #8]
	ldr	r3, [sp]
	strh	r2, [r3, #12]
	.loc 3 150 0
	ldr	r3, [sp, #4]
	ldrh	r2, [r3, #4]
	ldr	r3, [sp]
	strh	r2, [r3, #14]
	.loc 3 151 0
	ldr	r3, [sp, #4]
	ldr	r2, [r3, #12]
	ldr	r3, [sp]
	str	r2, [r3, #8]
	.loc 3 152 0
	ldr	r3, [sp, #4]
	ldrb	r3, [r3, #16]
	subs	r3, r3, #6
	rsbs	r2, r3, #0
	adcs	r3, r3, r2
	uxtb	r2, r3
	ldr	r3, [sp]
	strb	r2, [r3, #16]
	.loc 3 153 0
	b	.L70
.L67:
	.loc 3 156 0
	ldr	r3, [sp]
	movs	r2, #3
	strb	r2, [r3]
	.loc 3 157 0
	ldr	r3, [sp, #4]
	ldrh	r2, [r3, #6]
	ldr	r3, [sp]
	strh	r2, [r3, #12]
	.loc 3 158 0
	ldr	r3, [sp, #4]
	ldrh	r2, [r3, #8]
	ldr	r3, [sp]
	strh	r2, [r3, #14]
	.loc 3 159 0
	ldr	r3, [sp, #4]
	ldr	r2, [r3, #12]
	ldr	r3, [sp]
	str	r2, [r3, #8]
	.loc 3 160 0
	b	.L70
.L68:
	.loc 3 163 0
	ldr	r3, [sp]
	movs	r2, #4
	strb	r2, [r3]
	.loc 3 164 0
	ldr	r3, [sp, #4]
	ldrh	r2, [r3, #6]
	ldr	r3, [sp]
	strh	r2, [r3, #12]
	.loc 3 165 0
	ldr	r3, [sp]
	movs	r2, #0
	strh	r2, [r3, #14]
	.loc 3 166 0
	b	.L70
.L69:
	.loc 3 169 0
	ldr	r3, [sp]
	movs	r2, #5
	strb	r2, [r3]
	.loc 3 170 0
	b	.L70
.L71:
	.loc 3 174 0
	nop
.L70:
	.loc 3 176 0
	nop
	add	sp, sp, #8
	@ sp needed
	bx	lr
.L73:
	.align	2
.L72:
	.word	.L64
.LFE115:
	.size	event_prepare, .-event_prepare
	.section	.text.header_is_valid,"ax",%progbits
	.align	1
	.syntax unified
	.code	16
	.thumb_func
	.fpu softvfp
	.type	header_is_valid, %function
header_is_valid:
.LFB116:
	.loc 3 180 0
	@ args = 0, pretend = 0, frame = 8
	@ frame_needed = 0, uses_anonymous_args = 0
	@ link register save eliminated.
	sub	sp, sp, #8
.LCFI7:
	str	r0, [sp, #4]
	.loc 3 181 0
	ldr	r3, [sp, #4]
	ldrh	r3, [r3, #4]
	ldr	r2, .L78
	cmp	r3, r2
	beq	.L75
	.loc 3 182 0 discriminator 1
	ldr	r3, [sp, #4]
	ldrh	r3, [r3]
	.loc 3 181 0 discriminator 1
	cmp	r3, #0
	beq	.L75
	.loc 3 181 0 is_stmt 0 discriminator 3
	movs	r3, #1
	b	.L76
.L75:
	.loc 3 181 0 discriminator 4
	movs	r3, #0
.L76:
	.loc 3 181 0 discriminator 6
	adds	r2, r3, #0
	movs	r3, #1
	ands	r3, r2
	uxtb	r3, r3
	.loc 3 183 0 is_stmt 1 discriminator 6
	movs	r0, r3
	add	sp, sp, #8
	@ sp needed
	bx	lr
.L79:
	.align	2
.L78:
	.word	65535
.LFE116:
	.size	header_is_valid, .-header_is_valid
	.section	.text.address_is_valid,"ax",%progbits
	.align	1
	.syntax unified
	.code	16
	.thumb_func
	.fpu softvfp
	.type	address_is_valid, %function
address_is_valid:
.LFB117:
	.loc 3 187 0
	@ args = 0, pretend = 0, frame = 8
	@ frame_needed = 0, uses_anonymous_args = 0
	push	{lr}
.LCFI8:
	sub	sp, sp, #12
.LCFI9:
	str	r0, [sp, #4]
	.loc 3 190 0
	ldr	r3, [sp, #4]
	cmp	r3, #0
	beq	.L81
	.loc 3 189 0
	ldr	r3, .L84
	ldr	r2, [r3]
	.loc 3 188 0
	ldr	r3, [sp, #4]
	cmp	r2, r3
	bhi	.L81
	.loc 3 190 0
	ldr	r3, .L84
	ldr	r2, [r3, #4]
	.loc 3 189 0
	ldr	r3, [sp, #4]
	cmp	r2, r3
	bcc	.L81
	.loc 3 191 0 discriminator 3
	ldr	r3, [sp, #4]
	movs	r0, r3
	bl	is_word_aligned
	subs	r3, r0, #0
	.loc 3 190 0 discriminator 3
	beq	.L81
	.loc 3 190 0 is_stmt 0 discriminator 2
	movs	r3, #1
	b	.L82
.L81:
	.loc 3 190 0 discriminator 1
	movs	r3, #0
.L82:
	.loc 3 190 0 discriminator 5
	adds	r2, r3, #0
	movs	r3, #1
	ands	r3, r2
	uxtb	r3, r3
	.loc 3 192 0 is_stmt 1 discriminator 5
	movs	r0, r3
	add	sp, sp, #12
	@ sp needed
	pop	{pc}
.L85:
	.align	2
.L84:
	.word	fs_config
.LFE117:
	.size	address_is_valid, .-address_is_valid
	.section	.text.chunk_is_aligned,"ax",%progbits
	.align	1
	.syntax unified
	.code	16
	.thumb_func
	.fpu softvfp
	.type	chunk_is_aligned, %function
chunk_is_aligned:
.LFB118:
	.loc 3 196 0
	@ args = 0, pretend = 0, frame = 16
	@ frame_needed = 0, uses_anonymous_args = 0
	push	{lr}
.LCFI10:
	sub	sp, sp, #20
.LCFI11:
	str	r0, [sp, #4]
	str	r1, [sp]
.LBB3:
	.loc 3 197 0
	movs	r3, #0
	str	r3, [sp, #12]
	b	.L87
.L90:
	.loc 3 199 0
	ldr	r3, [sp, #12]
	lsls	r3, r3, #3
	ldr	r2, [sp, #4]
	adds	r3, r2, r3
	ldr	r3, [r3]
	movs	r0, r3
	bl	is_word_aligned
	movs	r3, r0
	movs	r2, r3
	movs	r3, #1
	eors	r3, r2
	uxtb	r3, r3
	cmp	r3, #0
	beq	.L88
	.loc 3 201 0
	movs	r3, #0
	b	.L89
.L88:
	.loc 3 197 0 discriminator 2
	ldr	r3, [sp, #12]
	adds	r3, r3, #1
	str	r3, [sp, #12]
.L87:
	.loc 3 197 0 is_stmt 0 discriminator 1
	ldr	r2, [sp, #12]
	ldr	r3, [sp]
	cmp	r2, r3
	bcc	.L90
.LBE3:
	.loc 3 204 0 is_stmt 1
	movs	r3, #1
.L89:
	.loc 3 205 0
	movs	r0, r3
	add	sp, sp, #20
	@ sp needed
	pop	{pc}
.LFE118:
	.size	chunk_is_aligned, .-chunk_is_aligned
	.section	.text.page_identify,"ax",%progbits
	.align	1
	.syntax unified
	.code	16
	.thumb_func
	.fpu softvfp
	.type	page_identify, %function
page_identify:
.LFB119:
	.loc 3 210 0
	@ args = 0, pretend = 0, frame = 8
	@ frame_needed = 0, uses_anonymous_args = 0
	@ link register save eliminated.
	sub	sp, sp, #8
.LCFI12:
	str	r0, [sp, #4]
	.loc 3 211 0
	ldr	r3, [sp, #4]
	ldr	r3, [r3]
	ldr	r2, .L98
	cmp	r3, r2
	beq	.L92
	.loc 3 213 0
	movs	r3, #3
	b	.L93
.L92:
	.loc 3 216 0
	ldr	r3, [sp, #4]
	adds	r3, r3, #4
	ldr	r3, [r3]
	ldr	r2, .L98+4
	cmp	r3, r2
	beq	.L95
	ldr	r2, .L98+8
	cmp	r3, r2
	bne	.L97
	.loc 3 219 0
	movs	r3, #1
	b	.L93
.L95:
	.loc 3 222 0
	movs	r3, #0
	b	.L93
.L97:
	.loc 3 225 0
	movs	r3, #3
.L93:
	.loc 3 227 0
	movs	r0, r3
	add	sp, sp, #8
	@ sp needed
	bx	lr
.L99:
	.align	2
.L98:
	.word	-559038242
	.word	-249691650
	.word	-249691649
.LFE119:
	.size	page_identify, .-page_identify
	.section	.text.page_is_erased,"ax",%progbits
	.align	1
	.syntax unified
	.code	16
	.thumb_func
	.fpu softvfp
	.type	page_is_erased, %function
page_is_erased:
.LFB120:
	.loc 3 231 0
	@ args = 0, pretend = 0, frame = 16
	@ frame_needed = 0, uses_anonymous_args = 0
	@ link register save eliminated.
	sub	sp, sp, #16
.LCFI13:
	str	r0, [sp, #4]
.LBB4:
	.loc 3 232 0
	movs	r3, #0
	str	r3, [sp, #12]
	b	.L101
.L104:
	.loc 3 234 0
	ldr	r3, [sp, #12]
	lsls	r3, r3, #2
	ldr	r2, [sp, #4]
	adds	r3, r2, r3
	ldr	r3, [r3]
	adds	r3, r3, #1
	beq	.L102
	.loc 3 236 0
	movs	r3, #0
	b	.L103
.L102:
	.loc 3 232 0 discriminator 2
	ldr	r3, [sp, #12]
	adds	r3, r3, #1
	str	r3, [sp, #12]
.L101:
	.loc 3 232 0 is_stmt 0 discriminator 1
	ldr	r3, [sp, #12]
	cmp	r3, #255
	bls	.L104
.LBE4:
	.loc 3 240 0 is_stmt 1
	movs	r3, #1
.L103:
	.loc 3 241 0
	movs	r0, r3
	add	sp, sp, #16
	@ sp needed
	bx	lr
.LFE120:
	.size	page_is_erased, .-page_is_erased
	.section	.text.page_has_space,"ax",%progbits
	.align	1
	.syntax unified
	.code	16
	.thumb_func
	.fpu softvfp
	.type	page_has_space, %function
page_has_space:
.LFB121:
	.loc 3 246 0
	@ args = 0, pretend = 0, frame = 8
	@ frame_needed = 0, uses_anonymous_args = 0
	@ link register save eliminated.
	sub	sp, sp, #8
.LCFI14:
	movs	r2, r0
	mov	r3, sp
	adds	r3, r3, #6
	strh	r2, [r3]
	add	r3, sp, #4
	adds	r2, r1, #0
	strh	r2, [r3]
	.loc 3 247 0
	mov	r3, sp
	adds	r3, r3, #6
	ldrh	r3, [r3]
	ldr	r2, .L107
	lsls	r3, r3, #4
	adds	r3, r2, r3
	adds	r3, r3, #8
	ldrh	r1, [r3]
	add	r3, sp, #4
	add	r2, sp, #4
	ldrh	r2, [r2]
	adds	r2, r1, r2
	strh	r2, [r3]
	.loc 3 248 0
	mov	r3, sp
	adds	r3, r3, #6
	ldrh	r3, [r3]
	ldr	r2, .L107
	lsls	r3, r3, #4
	adds	r3, r2, r3
	adds	r3, r3, #10
	ldrh	r1, [r3]
	add	r3, sp, #4
	add	r2, sp, #4
	ldrh	r2, [r2]
	adds	r2, r1, r2
	strh	r2, [r3]
	.loc 3 249 0
	add	r3, sp, #4
	ldrh	r2, [r3]
	movs	r1, #255
	movs	r3, #0
	cmp	r1, r2
	adcs	r3, r3, r3
	uxtb	r3, r3
	.loc 3 250 0
	movs	r0, r3
	add	sp, sp, #8
	@ sp needed
	bx	lr
.L108:
	.align	2
.L107:
	.word	m_pages
.LFE121:
	.size	page_has_space, .-page_has_space
	.section	.text.page_from_record,"ax",%progbits
	.align	1
	.syntax unified
	.code	16
	.thumb_func
	.fpu softvfp
	.type	page_from_record, %function
page_from_record:
.LFB122:
	.loc 3 256 0
	@ args = 0, pretend = 0, frame = 16
	@ frame_needed = 0, uses_anonymous_args = 0
	@ link register save eliminated.
	sub	sp, sp, #16
.LCFI15:
	str	r0, [sp, #4]
	str	r1, [sp]
	.loc 3 257 0
	movs	r3, #10
	str	r3, [sp, #12]
.LBB5:
	.loc 3 260 0
	movs	r3, #10
	add	r3, r3, sp
	movs	r2, #0
	strh	r2, [r3]
	b	.L110
.L113:
	.loc 3 262 0
	movs	r3, #10
	add	r3, r3, sp
	ldrh	r3, [r3]
	ldr	r2, .L115
	lsls	r3, r3, #4
	adds	r3, r2, r3
	adds	r3, r3, #4
	ldr	r2, [r3]
	ldr	r3, [sp]
	cmp	r2, r3
	bcs	.L111
	.loc 3 263 0 discriminator 1
	movs	r3, #10
	add	r3, r3, sp
	ldrh	r3, [r3]
	ldr	r2, .L115
	lsls	r3, r3, #4
	adds	r3, r2, r3
	adds	r3, r3, #4
	ldr	r3, [r3]
	movs	r2, #128
	lsls	r2, r2, #3
	adds	r2, r3, r2
	.loc 3 262 0 discriminator 1
	ldr	r3, [sp]
	cmp	r2, r3
	bls	.L111
	.loc 3 265 0
	movs	r3, #0
	str	r3, [sp, #12]
	.loc 3 266 0
	ldr	r3, [sp, #4]
	movs	r2, #10
	add	r2, r2, sp
	ldrh	r2, [r2]
	strh	r2, [r3]
	.loc 3 267 0
	b	.L112
.L111:
	.loc 3 260 0 discriminator 2
	movs	r3, #10
	add	r3, r3, sp
	ldrh	r2, [r3]
	movs	r3, #10
	add	r3, r3, sp
	adds	r2, r2, #1
	strh	r2, [r3]
.L110:
	.loc 3 260 0 is_stmt 0 discriminator 1
	movs	r3, #10
	add	r3, r3, sp
	ldrh	r3, [r3]
	cmp	r3, #1
	bls	.L113
.L112:
.LBE5:
	.loc 3 272 0 is_stmt 1
	ldr	r3, [sp, #12]
	.loc 3 273 0
	movs	r0, r3
	add	sp, sp, #16
	@ sp needed
	bx	lr
.L116:
	.align	2
.L115:
	.word	m_pages
.LFE122:
	.size	page_from_record, .-page_from_record
	.section	.text.page_scan,"ax",%progbits
	.align	1
	.syntax unified
	.code	16
	.thumb_func
	.fpu softvfp
	.type	page_scan, %function
page_scan:
.LFB123:
	.loc 3 283 0
	@ args = 0, pretend = 0, frame = 32
	@ frame_needed = 0, uses_anonymous_args = 0
	push	{lr}
.LCFI16:
	sub	sp, sp, #36
.LCFI17:
	str	r0, [sp, #12]
	str	r1, [sp, #8]
	str	r2, [sp, #4]
	.loc 3 284 0
	ldr	r3, [sp, #12]
	movs	r2, #128
	lsls	r2, r2, #3
	mov	ip, r2
	add	r3, r3, ip
	str	r3, [sp, #24]
	.loc 3 285 0
	movs	r3, #31
	add	r3, r3, sp
	movs	r2, #0
	strb	r2, [r3]
	.loc 3 287 0
	ldr	r3, [sp, #12]
	adds	r3, r3, #8
	str	r3, [sp, #12]
	.loc 3 288 0
	ldr	r3, [sp, #8]
	movs	r2, #2
	strh	r2, [r3]
	.loc 3 290 0
	b	.L118
.L122:
.LBB6:
	.loc 3 293 0
	ldr	r3, [sp, #12]
	str	r3, [sp, #20]
	.loc 3 295 0
	ldr	r3, [sp, #20]
	movs	r0, r3
	bl	header_is_valid
	movs	r3, r0
	movs	r2, r3
	movs	r3, #1
	eors	r3, r2
	uxtb	r3, r3
	cmp	r3, #0
	beq	.L119
	.loc 3 297 0
	movs	r3, #31
	add	r3, r3, sp
	movs	r2, #1
	strb	r2, [r3]
	b	.L120
.L119:
	.loc 3 302 0
	ldr	r3, [sp, #20]
	ldr	r2, [r3, #8]
	ldr	r3, .L125
	ldr	r3, [r3]
	cmp	r2, r3
	bls	.L120
	.loc 3 304 0
	ldr	r3, [sp, #20]
	ldr	r2, [r3, #8]
	ldr	r3, .L125
	str	r2, [r3]
.L120:
	.loc 3 309 0
	ldr	r3, [sp, #20]
	ldrh	r3, [r3, #2]
	adds	r3, r3, #3
	lsls	r3, r3, #2
	ldr	r2, [sp, #12]
	adds	r3, r2, r3
	str	r3, [sp, #12]
	.loc 3 310 0
	ldr	r3, [sp, #8]
	ldrh	r2, [r3]
	ldr	r3, [sp, #20]
	ldrh	r3, [r3, #2]
	adds	r3, r2, r3
	uxth	r3, r3
	adds	r3, r3, #3
	uxth	r2, r3
	ldr	r3, [sp, #8]
	strh	r2, [r3]
.L118:
.LBE6:
	.loc 3 290 0
	ldr	r2, [sp, #12]
	ldr	r3, [sp, #24]
	cmp	r2, r3
	bcs	.L121
	.loc 3 290 0 is_stmt 0 discriminator 1
	ldr	r3, [sp, #12]
	ldr	r3, [r3]
	adds	r3, r3, #1
	bne	.L122
.L121:
	.loc 3 313 0 is_stmt 1
	ldr	r3, [sp, #4]
	cmp	r3, #0
	beq	.L124
	.loc 3 315 0
	ldr	r3, [sp, #4]
	movs	r2, #31
	add	r2, r2, sp
	ldrb	r2, [r2]
	strb	r2, [r3]
.L124:
	.loc 3 317 0
	nop
	add	sp, sp, #36
	@ sp needed
	pop	{pc}
.L126:
	.align	2
.L125:
	.word	m_latest_rec_id
.LFE123:
	.size	page_scan, .-page_scan
	.section	.text.page_offsets_update,"ax",%progbits
	.align	1
	.syntax unified
	.code	16
	.thumb_func
	.fpu softvfp
	.type	page_offsets_update, %function
page_offsets_update:
.LFB124:
	.loc 3 321 0
	@ args = 0, pretend = 0, frame = 8
	@ frame_needed = 0, uses_anonymous_args = 0
	@ link register save eliminated.
	sub	sp, sp, #8
.LCFI18:
	str	r0, [sp, #4]
	movs	r2, r1
	mov	r3, sp
	adds	r3, r3, #2
	strh	r2, [r3]
	.loc 3 322 0
	ldr	r3, [sp, #4]
	ldrh	r2, [r3, #8]
	mov	r3, sp
	adds	r3, r3, #2
	ldrh	r3, [r3]
	adds	r3, r2, r3
	uxth	r3, r3
	adds	r3, r3, #3
	uxth	r2, r3
	ldr	r3, [sp, #4]
	strh	r2, [r3, #8]
	.loc 3 323 0
	ldr	r3, [sp, #4]
	ldrh	r2, [r3, #10]
	mov	r3, sp
	adds	r3, r3, #2
	ldrh	r3, [r3]
	subs	r3, r2, r3
	uxth	r3, r3
	subs	r3, r3, #3
	uxth	r2, r3
	ldr	r3, [sp, #4]
	strh	r2, [r3, #10]
	.loc 3 324 0
	nop
	add	sp, sp, #8
	@ sp needed
	bx	lr
.LFE124:
	.size	page_offsets_update, .-page_offsets_update
	.section	.text.page_tag_write_swap,"ax",%progbits
	.align	1
	.syntax unified
	.code	16
	.thumb_func
	.fpu softvfp
	.type	page_tag_write_swap, %function
page_tag_write_swap:
.LFB125:
	.loc 3 329 0
	@ args = 0, pretend = 0, frame = 0
	@ frame_needed = 0, uses_anonymous_args = 0
	push	{lr}
.LCFI19:
	sub	sp, sp, #12
.LCFI20:
	.loc 3 332 0
	ldr	r3, .L130
	ldr	r1, [r3]
	ldr	r2, .L130+4
	ldr	r0, .L130+8
	movs	r3, #0
	str	r3, [sp]
	movs	r3, #2
	bl	fs_store
	movs	r3, r0
	.loc 3 333 0
	movs	r0, r3
	add	sp, sp, #12
	@ sp needed
	pop	{pc}
.L131:
	.align	2
.L130:
	.word	m_swap_page
	.word	page_tag_swap.5919
	.word	fs_config
.LFE125:
	.size	page_tag_write_swap, .-page_tag_write_swap
	.section	.text.page_tag_write_data,"ax",%progbits
	.align	1
	.syntax unified
	.code	16
	.thumb_func
	.fpu softvfp
	.type	page_tag_write_data, %function
page_tag_write_data:
.LFB126:
	.loc 3 338 0
	@ args = 0, pretend = 0, frame = 8
	@ frame_needed = 0, uses_anonymous_args = 0
	push	{lr}
.LCFI21:
	sub	sp, sp, #20
.LCFI22:
	str	r0, [sp, #12]
	.loc 3 341 0
	ldr	r2, .L134
	ldr	r1, [sp, #12]
	ldr	r0, .L134+4
	movs	r3, #0
	str	r3, [sp]
	movs	r3, #2
	bl	fs_store
	movs	r3, r0
	.loc 3 342 0
	movs	r0, r3
	add	sp, sp, #20
	@ sp needed
	pop	{pc}
.L135:
	.align	2
.L134:
	.word	page_tag_data.5923
	.word	fs_config
.LFE126:
	.size	page_tag_write_data, .-page_tag_write_data
	.section	.text.write_space_reserve,"ax",%progbits
	.align	1
	.syntax unified
	.code	16
	.thumb_func
	.fpu softvfp
	.type	write_space_reserve, %function
write_space_reserve:
.LFB127:
	.loc 3 348 0
	@ args = 0, pretend = 0, frame = 16
	@ frame_needed = 0, uses_anonymous_args = 0
	push	{lr}
.LCFI23:
	sub	sp, sp, #20
.LCFI24:
	movs	r2, r0
	str	r1, [sp]
	mov	r3, sp
	adds	r3, r3, #6
	strh	r2, [r3]
	.loc 3 349 0
	movs	r3, #15
	add	r3, r3, sp
	movs	r2, #0
	strb	r2, [r3]
	.loc 3 350 0
	movs	r3, #10
	add	r3, r3, sp
	mov	r2, sp
	adds	r2, r2, #6
	ldrh	r2, [r2]
	adds	r2, r2, #3
	strh	r2, [r3]
	.loc 3 352 0
	movs	r3, #10
	add	r3, r3, sp
	ldrh	r3, [r3]
	cmp	r3, #253
	bls	.L137
	.loc 3 354 0
	movs	r3, #9
	b	.L138
.L137:
.LBB7:
	.loc 3 358 0
	add	r3, sp, #12
	movs	r2, #0
	strh	r2, [r3]
	b	.L139
.L142:
	.loc 3 360 0
	add	r3, sp, #12
	ldrh	r2, [r3]
	ldr	r3, .L145
	lsls	r2, r2, #4
	ldrb	r3, [r2, r3]
	cmp	r3, #0
	bne	.L140
	.loc 3 361 0 discriminator 1
	movs	r3, #10
	add	r3, r3, sp
	ldrh	r2, [r3]
	add	r3, sp, #12
	ldrh	r3, [r3]
	movs	r1, r2
	movs	r0, r3
	bl	page_has_space
	subs	r3, r0, #0
	.loc 3 360 0 discriminator 1
	beq	.L140
	.loc 3 363 0
	movs	r3, #15
	add	r3, r3, sp
	movs	r2, #1
	strb	r2, [r3]
	.loc 3 364 0
	ldr	r3, [sp]
	add	r2, sp, #12
	ldrh	r2, [r2]
	strh	r2, [r3]
	.loc 3 366 0
	add	r3, sp, #12
	ldrh	r3, [r3]
	add	r2, sp, #12
	ldrh	r2, [r2]
	ldr	r1, .L145
	lsls	r2, r2, #4
	adds	r2, r1, r2
	adds	r2, r2, #10
	ldrh	r1, [r2]
	movs	r2, #10
	add	r2, r2, sp
	ldrh	r2, [r2]
	adds	r2, r1, r2
	uxth	r1, r2
	ldr	r2, .L145
	lsls	r3, r3, #4
	adds	r3, r2, r3
	adds	r3, r3, #10
	adds	r2, r1, #0
	strh	r2, [r3]
	.loc 3 367 0
	b	.L141
.L140:
	.loc 3 358 0 discriminator 2
	add	r3, sp, #12
	ldrh	r2, [r3]
	add	r3, sp, #12
	adds	r2, r2, #1
	strh	r2, [r3]
.L139:
	.loc 3 358 0 is_stmt 0 discriminator 1
	add	r3, sp, #12
	ldrh	r3, [r3]
	cmp	r3, #1
	bls	.L142
.L141:
.LBE7:
	.loc 3 372 0 is_stmt 1
	movs	r3, #15
	add	r3, r3, sp
	ldrb	r3, [r3]
	cmp	r3, #0
	beq	.L143
	.loc 3 372 0 is_stmt 0 discriminator 1
	movs	r3, #0
	b	.L138
.L143:
	.loc 3 372 0 discriminator 2
	movs	r3, #7
.L138:
	.loc 3 373 0 is_stmt 1
	movs	r0, r3
	add	sp, sp, #20
	@ sp needed
	pop	{pc}
.L146:
	.align	2
.L145:
	.word	m_pages
.LFE127:
	.size	write_space_reserve, .-write_space_reserve
	.section	.text.write_space_free,"ax",%progbits
	.align	1
	.syntax unified
	.code	16
	.thumb_func
	.fpu softvfp
	.type	write_space_free, %function
write_space_free:
.LFB128:
	.loc 3 379 0
	@ args = 0, pretend = 0, frame = 8
	@ frame_needed = 0, uses_anonymous_args = 0
	@ link register save eliminated.
	sub	sp, sp, #8
.LCFI25:
	movs	r2, r0
	mov	r3, sp
	adds	r3, r3, #6
	strh	r2, [r3]
	add	r3, sp, #4
	adds	r2, r1, #0
	strh	r2, [r3]
	.loc 3 380 0
	add	r3, sp, #4
	ldrh	r3, [r3]
	add	r2, sp, #4
	ldrh	r2, [r2]
	ldr	r1, .L148
	lsls	r2, r2, #4
	adds	r2, r1, r2
	adds	r2, r2, #10
	ldrh	r1, [r2]
	mov	r2, sp
	adds	r2, r2, #6
	ldrh	r2, [r2]
	subs	r2, r1, r2
	uxth	r2, r2
	subs	r2, r2, #3
	uxth	r1, r2
	ldr	r2, .L148
	lsls	r3, r3, #4
	adds	r3, r2, r3
	adds	r3, r3, #10
	adds	r2, r1, #0
	strh	r2, [r3]
	.loc 3 381 0
	nop
	add	sp, sp, #8
	@ sp needed
	bx	lr
.L149:
	.align	2
.L148:
	.word	m_pages
.LFE128:
	.size	write_space_free, .-write_space_free
	.section	.text.record_id_new,"ax",%progbits
	.align	1
	.syntax unified
	.code	16
	.thumb_func
	.fpu softvfp
	.type	record_id_new, %function
record_id_new:
.LFB129:
	.loc 3 385 0
	@ args = 0, pretend = 0, frame = 0
	@ frame_needed = 0, uses_anonymous_args = 0
	@ link register save eliminated.
	.loc 3 387 0
	ldr	r3, .L152
	ldr	r3, [r3]
	adds	r2, r3, #1
	ldr	r3, .L152
	str	r2, [r3]
	.loc 3 389 0
	ldr	r3, .L152
	ldr	r3, [r3]
	.loc 3 390 0
	movs	r0, r3
	@ sp needed
	bx	lr
.L153:
	.align	2
.L152:
	.word	m_latest_rec_id
.LFE129:
	.size	record_id_new, .-record_id_new
	.section	.text.record_find_next,"ax",%progbits
	.align	1
	.syntax unified
	.code	16
	.thumb_func
	.fpu softvfp
	.type	record_find_next, %function
record_find_next:
.LFB130:
	.loc 3 398 0
	@ args = 0, pretend = 0, frame = 16
	@ frame_needed = 0, uses_anonymous_args = 0
	push	{lr}
.LCFI26:
	sub	sp, sp, #20
.LCFI27:
	movs	r2, r0
	str	r1, [sp]
	mov	r3, sp
	adds	r3, r3, #6
	strh	r2, [r3]
	.loc 3 400 0
	ldr	r3, [sp]
	ldr	r3, [r3]
	str	r3, [sp, #12]
	.loc 3 404 0
	ldr	r3, [sp, #12]
	cmp	r3, #0
	beq	.L155
	.loc 3 406 0
	ldr	r3, [sp, #12]
	str	r3, [sp, #8]
	.loc 3 407 0
	ldr	r3, [sp, #8]
	ldrh	r3, [r3, #2]
	adds	r3, r3, #3
	lsls	r3, r3, #2
	ldr	r2, [sp, #12]
	adds	r3, r2, r3
	str	r3, [sp, #12]
	b	.L157
.L155:
	.loc 3 411 0
	mov	r3, sp
	adds	r3, r3, #6
	ldrh	r3, [r3]
	ldr	r2, .L162
	lsls	r3, r3, #4
	adds	r3, r2, r3
	adds	r3, r3, #4
	ldr	r3, [r3]
	adds	r3, r3, #8
	str	r3, [sp, #12]
	.loc 3 416 0
	b	.L157
.L161:
	.loc 3 419 0
	ldr	r3, [sp, #12]
	str	r3, [sp, #8]
	.loc 3 421 0
	ldr	r3, [sp, #8]
	movs	r0, r3
	bl	header_is_valid
	subs	r3, r0, #0
	beq	.L158
	.loc 3 423 0
	ldr	r3, [sp]
	ldr	r2, [sp, #12]
	str	r2, [r3]
	.loc 3 424 0
	movs	r3, #1
	b	.L159
.L158:
	.loc 3 429 0
	ldr	r3, [sp, #8]
	ldrh	r3, [r3, #2]
	adds	r3, r3, #3
	lsls	r3, r3, #2
	ldr	r2, [sp, #12]
	adds	r3, r2, r3
	str	r3, [sp, #12]
.L157:
	.loc 3 416 0
	mov	r3, sp
	adds	r3, r3, #6
	ldrh	r3, [r3]
	ldr	r2, .L162
	lsls	r3, r3, #4
	adds	r3, r2, r3
	adds	r3, r3, #4
	ldr	r3, [r3]
	movs	r2, #128
	lsls	r2, r2, #3
	adds	r2, r3, r2
	ldr	r3, [sp, #12]
	cmp	r2, r3
	bls	.L160
	.loc 3 417 0 discriminator 1
	ldr	r3, [sp, #12]
	ldr	r3, [r3]
	.loc 3 416 0 discriminator 1
	adds	r3, r3, #1
	bne	.L161
.L160:
	.loc 3 434 0
	movs	r3, #0
.L159:
	.loc 3 435 0
	movs	r0, r3
	add	sp, sp, #20
	@ sp needed
	pop	{pc}
.L163:
	.align	2
.L162:
	.word	m_pages
.LFE130:
	.size	record_find_next, .-record_find_next
	.section	.text.record_find_by_desc,"ax",%progbits
	.align	1
	.syntax unified
	.code	16
	.thumb_func
	.fpu softvfp
	.type	record_find_by_desc, %function
record_find_by_desc:
.LFB131:
	.loc 3 441 0
	@ args = 0, pretend = 0, frame = 16
	@ frame_needed = 0, uses_anonymous_args = 0
	push	{lr}
.LCFI28:
	sub	sp, sp, #20
.LCFI29:
	str	r0, [sp, #4]
	str	r1, [sp]
	.loc 3 446 0
	ldr	r3, [sp, #4]
	ldr	r3, [r3, #4]
	movs	r0, r3
	bl	address_is_valid
	subs	r3, r0, #0
	beq	.L165
	.loc 3 447 0 discriminator 1
	ldr	r3, [sp, #4]
	ldrh	r2, [r3, #8]
	ldr	r3, .L171
	ldrh	r3, [r3, #8]
	.loc 3 446 0 discriminator 1
	cmp	r2, r3
	bne	.L165
	.loc 3 448 0
	ldr	r3, [sp, #4]
	ldr	r2, [r3]
	ldr	r3, [sp, #4]
	ldr	r3, [r3, #4]
	ldr	r3, [r3, #8]
	.loc 3 447 0
	cmp	r2, r3
	bne	.L165
	.loc 3 450 0
	ldr	r3, [sp, #4]
	ldr	r2, [r3, #4]
	ldr	r3, [sp]
	movs	r1, r2
	movs	r0, r3
	bl	page_from_record
	movs	r3, r0
	rsbs	r2, r3, #0
	adcs	r3, r3, r2
	uxtb	r3, r3
	b	.L166
.L165:
	.loc 3 454 0
	ldr	r3, [sp]
	movs	r2, #0
	strh	r2, [r3]
	b	.L167
.L170:
.LBB8:
	.loc 3 457 0
	movs	r3, #0
	str	r3, [sp, #8]
	.loc 3 459 0
	b	.L168
.L169:
.LBB9:
	.loc 3 461 0
	ldr	r3, [sp, #8]
	str	r3, [sp, #12]
	.loc 3 462 0
	ldr	r3, [sp, #12]
	ldr	r2, [r3, #8]
	ldr	r3, [sp, #4]
	ldr	r3, [r3]
	cmp	r2, r3
	bne	.L168
	.loc 3 464 0
	ldr	r2, [sp, #8]
	ldr	r3, [sp, #4]
	str	r2, [r3, #4]
	.loc 3 465 0
	ldr	r3, .L171
	ldrh	r2, [r3, #8]
	ldr	r3, [sp, #4]
	strh	r2, [r3, #8]
	.loc 3 466 0
	movs	r3, #1
	b	.L166
.L168:
.LBE9:
	.loc 3 459 0
	ldr	r3, [sp]
	ldrh	r3, [r3]
	add	r2, sp, #8
	movs	r1, r2
	movs	r0, r3
	bl	record_find_next
	subs	r3, r0, #0
	bne	.L169
.LBE8:
	.loc 3 454 0
	ldr	r3, [sp]
	ldrh	r3, [r3]
	adds	r3, r3, #1
	uxth	r2, r3
	ldr	r3, [sp]
	strh	r2, [r3]
.L167:
	.loc 3 454 0 is_stmt 0 discriminator 1
	ldr	r3, [sp]
	ldrh	r3, [r3]
	cmp	r3, #1
	bls	.L170
	.loc 3 471 0 is_stmt 1
	movs	r3, #0
.L166:
	.loc 3 472 0
	movs	r0, r3
	add	sp, sp, #20
	@ sp needed
	pop	{pc}
.L172:
	.align	2
.L171:
	.word	m_gc
.LFE131:
	.size	record_find_by_desc, .-record_find_by_desc
	.section	.text.record_find,"ax",%progbits
	.align	1
	.syntax unified
	.code	16
	.thumb_func
	.fpu softvfp
	.type	record_find, %function
record_find:
.LFB132:
	.loc 3 483 0
	@ args = 0, pretend = 0, frame = 24
	@ frame_needed = 0, uses_anonymous_args = 0
	push	{lr}
.LCFI30:
	sub	sp, sp, #28
.LCFI31:
	str	r0, [sp, #12]
	str	r1, [sp, #8]
	str	r2, [sp, #4]
	str	r3, [sp]
	.loc 3 484 0
	movs	r0, #2
	bl	flag_is_set
	movs	r3, r0
	movs	r2, r3
	movs	r3, #1
	eors	r3, r2
	uxtb	r3, r3
	cmp	r3, #0
	beq	.L174
	.loc 3 486 0
	movs	r3, #2
	b	.L175
.L174:
	.loc 3 489 0
	ldr	r3, [sp, #4]
	cmp	r3, #0
	beq	.L176
	.loc 3 489 0 is_stmt 0 discriminator 1
	ldr	r3, [sp]
	cmp	r3, #0
	bne	.L178
.L176:
	.loc 3 491 0 is_stmt 1
	movs	r3, #5
	b	.L175
.L185:
	.loc 3 497 0
	ldr	r3, [sp]
	ldrh	r3, [r3, #4]
	movs	r2, r3
	ldr	r3, .L187
	lsls	r2, r2, #4
	ldrb	r3, [r2, r3]
	cmp	r3, #0
	bne	.L186
	.loc 3 503 0
	b	.L181
.L184:
.LBB10:
	.loc 3 505 0
	ldr	r3, [sp]
	ldr	r3, [r3]
	str	r3, [sp, #20]
	.loc 3 508 0
	ldr	r3, [sp, #12]
	cmp	r3, #0
	beq	.L182
	.loc 3 509 0 discriminator 1
	ldr	r3, [sp, #20]
	ldrh	r2, [r3, #4]
	ldr	r3, [sp, #12]
	ldrh	r3, [r3]
	.loc 3 508 0 discriminator 1
	cmp	r2, r3
	beq	.L182
	.loc 3 511 0
	b	.L181
.L182:
	.loc 3 514 0
	ldr	r3, [sp, #8]
	cmp	r3, #0
	beq	.L183
	.loc 3 515 0 discriminator 1
	ldr	r3, [sp, #20]
	ldrh	r2, [r3]
	ldr	r3, [sp, #8]
	ldrh	r3, [r3]
	.loc 3 514 0 discriminator 1
	cmp	r2, r3
	beq	.L183
	.loc 3 517 0
	b	.L181
.L183:
	.loc 3 521 0
	ldr	r3, [sp, #20]
	ldr	r2, [r3, #8]
	ldr	r3, [sp, #4]
	str	r2, [r3]
	.loc 3 522 0
	ldr	r3, [sp]
	ldr	r2, [r3]
	ldr	r3, [sp, #4]
	str	r2, [r3, #4]
	.loc 3 523 0
	ldr	r3, .L187+4
	ldrh	r2, [r3, #8]
	ldr	r3, [sp, #4]
	strh	r2, [r3, #8]
	.loc 3 525 0
	movs	r3, #0
	b	.L175
.L181:
.LBE10:
	.loc 3 503 0
	ldr	r3, [sp]
	ldrh	r3, [r3, #4]
	ldr	r2, [sp]
	movs	r1, r2
	movs	r0, r3
	bl	record_find_next
	subs	r3, r0, #0
	bne	.L184
	.loc 3 530 0
	ldr	r3, [sp]
	movs	r2, #0
	str	r2, [r3]
	b	.L180
.L186:
	.loc 3 500 0
	nop
.L180:
	.loc 3 495 0
	ldr	r3, [sp]
	ldrh	r3, [r3, #4]
	adds	r3, r3, #1
	uxth	r2, r3
	ldr	r3, [sp]
	strh	r2, [r3, #4]
.L178:
	.loc 3 495 0 is_stmt 0 discriminator 1
	ldr	r3, [sp]
	ldrh	r3, [r3, #4]
	cmp	r3, #1
	bls	.L185
	.loc 3 533 0 is_stmt 1
	movs	r3, #10
.L175:
	.loc 3 534 0
	movs	r0, r3
	add	sp, sp, #28
	@ sp needed
	pop	{pc}
.L188:
	.align	2
.L187:
	.word	m_pages
	.word	m_gc
.LFE132:
	.size	record_find, .-record_find
	.section	.text.dirty_records_stat,"ax",%progbits
	.align	1
	.syntax unified
	.code	16
	.thumb_func
	.fpu softvfp
	.type	dirty_records_stat, %function
dirty_records_stat:
.LFB133:
	.loc 3 541 0
	@ args = 0, pretend = 0, frame = 24
	@ frame_needed = 0, uses_anonymous_args = 0
	push	{lr}
.LCFI32:
	sub	sp, sp, #28
.LCFI33:
	str	r1, [sp, #8]
	str	r2, [sp, #4]
	movs	r3, #14
	add	r3, r3, sp
	adds	r2, r0, #0
	strh	r2, [r3]
	.loc 3 545 0
	movs	r3, #14
	add	r3, r3, sp
	ldrh	r3, [r3]
	ldr	r2, .L195
	lsls	r3, r3, #4
	adds	r3, r2, r3
	adds	r3, r3, #4
	ldr	r3, [r3]
	adds	r3, r3, #8
	str	r3, [sp, #20]
	.loc 3 547 0
	b	.L190
.L193:
	.loc 3 550 0
	ldr	r3, [sp, #20]
	str	r3, [sp, #16]
	.loc 3 552 0
	ldr	r3, [sp, #16]
	movs	r0, r3
	bl	header_is_valid
	movs	r3, r0
	movs	r2, r3
	movs	r3, #1
	eors	r3, r2
	uxtb	r3, r3
	cmp	r3, #0
	beq	.L191
	.loc 3 554 0
	ldr	r3, [sp, #8]
	ldrh	r3, [r3]
	adds	r3, r3, #1
	uxth	r2, r3
	ldr	r3, [sp, #8]
	strh	r2, [r3]
	.loc 3 555 0
	ldr	r3, [sp, #4]
	ldrh	r2, [r3]
	ldr	r3, [sp, #16]
	ldrh	r3, [r3, #2]
	adds	r3, r2, r3
	uxth	r3, r3
	adds	r3, r3, #3
	uxth	r2, r3
	ldr	r3, [sp, #4]
	strh	r2, [r3]
.L191:
	.loc 3 558 0
	ldr	r3, [sp, #16]
	ldrh	r3, [r3, #2]
	adds	r3, r3, #3
	lsls	r3, r3, #2
	ldr	r2, [sp, #20]
	adds	r3, r2, r3
	str	r3, [sp, #20]
.L190:
	.loc 3 547 0
	movs	r3, #14
	add	r3, r3, sp
	ldrh	r3, [r3]
	ldr	r2, .L195
	lsls	r3, r3, #4
	adds	r3, r2, r3
	adds	r3, r3, #4
	ldr	r3, [r3]
	movs	r2, #128
	lsls	r2, r2, #3
	adds	r2, r3, r2
	ldr	r3, [sp, #20]
	cmp	r2, r3
	bls	.L194
	.loc 3 548 0 discriminator 1
	ldr	r3, [sp, #20]
	ldr	r3, [r3]
	.loc 3 547 0 discriminator 1
	adds	r3, r3, #1
	bne	.L193
.L194:
	.loc 3 560 0
	nop
	add	sp, sp, #28
	@ sp needed
	pop	{pc}
.L196:
	.align	2
.L195:
	.word	m_pages
.LFE133:
	.size	dirty_records_stat, .-dirty_records_stat
	.section	.text.queue_advance,"ax",%progbits
	.align	1
	.syntax unified
	.code	16
	.thumb_func
	.fpu softvfp
	.type	queue_advance, %function
queue_advance:
.LFB134:
	.loc 3 566 0
	@ args = 0, pretend = 0, frame = 0
	@ frame_needed = 0, uses_anonymous_args = 0
	push	{r4, lr}
.LCFI34:
	.loc 3 568 0
	ldr	r3, .L200
	ldr	r2, [r3, #112]
	movs	r3, r2
	lsls	r3, r3, #3
	subs	r3, r3, r2
	lsls	r3, r3, #2
	ldr	r2, .L200
	adds	r3, r3, r2
	movs	r2, #28
	movs	r1, #0
	movs	r0, r3
	bl	memset
	.loc 3 570 0
	ldr	r3, .L200
	ldr	r3, [r3, #116]
	cmp	r3, #0
	beq	.L198
	.loc 3 573 0
	ldr	r3, .L200
	ldr	r3, [r3, #112]
	adds	r3, r3, #1
	movs	r2, #3
	ands	r2, r3
	ldr	r3, .L200
	str	r2, [r3, #112]
	.loc 3 574 0
	ldr	r3, .L200
	ldr	r3, [r3, #116]
	subs	r2, r3, #1
	ldr	r3, .L200
	str	r2, [r3, #116]
.L198:
	.loc 3 577 0
	ldr	r3, .L200
	ldr	r3, [r3, #116]
	subs	r2, r3, #1
	sbcs	r3, r3, r2
	uxtb	r3, r3
	.loc 3 578 0
	movs	r0, r3
	@ sp needed
	pop	{r4, pc}
.L201:
	.align	2
.L200:
	.word	m_op_queue
.LFE134:
	.size	queue_advance, .-queue_advance
	.section	.text.chunk_queue_next,"ax",%progbits
	.align	1
	.global	chunk_queue_next
	.syntax unified
	.code	16
	.thumb_func
	.fpu softvfp
	.type	chunk_queue_next, %function
chunk_queue_next:
.LFB135:
	.loc 3 584 0
	@ args = 0, pretend = 0, frame = 8
	@ frame_needed = 0, uses_anonymous_args = 0
	@ link register save eliminated.
	sub	sp, sp, #8
.LCFI35:
	str	r0, [sp, #4]
	.loc 3 585 0
	ldr	r3, [sp, #4]
	ldr	r2, [r3]
	ldr	r3, .L205
	cmp	r2, r3
	beq	.L203
	.loc 3 587 0
	ldr	r3, [sp, #4]
	ldr	r3, [r3]
	adds	r3, r3, #8
	movs	r2, r3
	ldr	r3, [sp, #4]
	str	r2, [r3]
	.loc 3 588 0
	b	.L202
.L203:
	.loc 3 591 0
	ldr	r3, [sp, #4]
	ldr	r2, .L205+4
	str	r2, [r3]
.L202:
	.loc 3 592 0
	add	sp, sp, #8
	@ sp needed
	bx	lr
.L206:
	.align	2
.L205:
	.word	m_chunk_queue+56
	.word	m_chunk_queue
.LFE135:
	.size	chunk_queue_next, .-chunk_queue_next
	.section	.text.chunk_queue_get_and_advance,"ax",%progbits
	.align	1
	.syntax unified
	.code	16
	.thumb_func
	.fpu softvfp
	.type	chunk_queue_get_and_advance, %function
chunk_queue_get_and_advance:
.LFB136:
	.loc 3 597 0
	@ args = 0, pretend = 0, frame = 8
	@ frame_needed = 0, uses_anonymous_args = 0
	@ link register save eliminated.
	sub	sp, sp, #8
.LCFI36:
	str	r0, [sp, #4]
	.loc 3 598 0
	ldr	r3, .L210
	ldr	r3, [r3, #68]
	cmp	r3, #0
	beq	.L209
	.loc 3 601 0
	ldr	r3, .L210
	ldr	r3, [r3, #64]
	lsls	r2, r3, #3
	ldr	r3, .L210
	adds	r2, r2, r3
	ldr	r3, [sp, #4]
	str	r2, [r3]
	.loc 3 603 0
	ldr	r3, .L210
	ldr	r3, [r3, #64]
	adds	r3, r3, #1
	movs	r2, #7
	ands	r2, r3
	ldr	r3, .L210
	str	r2, [r3, #64]
	.loc 3 604 0
	ldr	r3, .L210
	ldr	r3, [r3, #68]
	subs	r2, r3, #1
	ldr	r3, .L210
	str	r2, [r3, #68]
.L209:
	.loc 3 606 0
	nop
	add	sp, sp, #8
	@ sp needed
	bx	lr
.L211:
	.align	2
.L210:
	.word	m_chunk_queue
.LFE136:
	.size	chunk_queue_get_and_advance, .-chunk_queue_get_and_advance
	.section	.text.chunk_queue_skip,"ax",%progbits
	.align	1
	.syntax unified
	.code	16
	.thumb_func
	.fpu softvfp
	.type	chunk_queue_skip, %function
chunk_queue_skip:
.LFB137:
	.loc 3 610 0
	@ args = 0, pretend = 0, frame = 8
	@ frame_needed = 0, uses_anonymous_args = 0
	@ link register save eliminated.
	sub	sp, sp, #8
.LCFI37:
	str	r0, [sp, #4]
	.loc 3 611 0
	ldr	r3, [sp, #4]
	ldrb	r3, [r3]
	cmp	r3, #2
	beq	.L213
	.loc 3 612 0 discriminator 1
	ldr	r3, [sp, #4]
	ldrb	r3, [r3]
	.loc 3 611 0 discriminator 1
	cmp	r3, #3
	bne	.L215
.L213:
	.loc 3 614 0
	ldr	r3, .L216
	ldr	r3, [r3, #64]
	ldr	r2, [sp, #4]
	ldrb	r2, [r2, #22]
	adds	r2, r3, r2
	ldr	r3, .L216
	str	r2, [r3, #64]
	.loc 3 615 0
	ldr	r3, .L216
	ldr	r3, [r3, #68]
	ldr	r2, [sp, #4]
	ldrb	r2, [r2, #22]
	subs	r2, r3, r2
	ldr	r3, .L216
	str	r2, [r3, #68]
.L215:
	.loc 3 617 0
	nop
	add	sp, sp, #8
	@ sp needed
	bx	lr
.L217:
	.align	2
.L216:
	.word	m_chunk_queue
.LFE137:
	.size	chunk_queue_skip, .-chunk_queue_skip
	.section	.text.op_enqueue,"ax",%progbits
	.align	1
	.syntax unified
	.code	16
	.thumb_func
	.fpu softvfp
	.type	op_enqueue, %function
op_enqueue:
.LFB138:
	.loc 3 624 0
	@ args = 0, pretend = 0, frame = 32
	@ frame_needed = 0, uses_anonymous_args = 0
	push	{r4, lr}
.LCFI38:
	sub	sp, sp, #32
.LCFI39:
	str	r0, [sp, #12]
	str	r1, [sp, #8]
	str	r2, [sp, #4]
	.loc 3 626 0
	movs	r3, #31
	add	r3, r3, sp
	movs	r2, #0
	strb	r2, [r3]
	.loc 3 629 0
	ldr	r3, .L224
	ldr	r3, [r3, #116]
	cmp	r3, #3
	bhi	.L219
	.loc 3 630 0 discriminator 1
	ldr	r3, .L224+4
	ldr	r2, [r3, #68]
	ldr	r3, [sp, #8]
	movs	r1, #8
	subs	r3, r1, r3
	.loc 3 629 0 discriminator 1
	cmp	r2, r3
	bhi	.L219
	.loc 3 632 0
	ldr	r3, .L224
	ldr	r2, [r3, #116]
	ldr	r3, .L224
	ldr	r3, [r3, #112]
	adds	r3, r2, r3
	movs	r2, #3
	ands	r3, r2
	str	r3, [sp, #20]
	.loc 3 634 0
	ldr	r1, .L224
	ldr	r2, [sp, #20]
	movs	r3, r2
	lsls	r3, r3, #3
	subs	r3, r3, r2
	lsls	r3, r3, #2
	ldr	r2, [sp, #12]
	adds	r3, r1, r3
	ldmia	r2!, {r0, r1, r4}
	stmia	r3!, {r0, r1, r4}
	ldmia	r2!, {r0, r1, r4}
	stmia	r3!, {r0, r1, r4}
	ldr	r2, [r2]
	str	r2, [r3]
	.loc 3 635 0
	ldr	r3, .L224
	ldr	r3, [r3, #116]
	adds	r2, r3, #1
	ldr	r3, .L224
	str	r2, [r3, #116]
	.loc 3 637 0
	ldr	r3, [sp, #8]
	cmp	r3, #0
	beq	.L220
.LBB11:
	.loc 3 639 0
	ldr	r3, .L224+4
	ldr	r2, [r3, #68]
	ldr	r3, .L224+4
	ldr	r3, [r3, #64]
	adds	r3, r2, r3
	movs	r2, #7
	ands	r3, r2
	str	r3, [sp, #20]
	.loc 3 642 0
	ldr	r3, [sp, #20]
	lsls	r2, r3, #3
	ldr	r3, .L224+4
	adds	r3, r2, r3
	str	r3, [sp, #16]
.LBB12:
	.loc 3 644 0
	movs	r3, #0
	str	r3, [sp, #24]
	b	.L221
.L222:
	.loc 3 646 0 discriminator 3
	ldr	r1, [sp, #16]
	ldr	r3, [sp, #24]
	lsls	r3, r3, #3
	ldr	r2, [sp, #4]
	adds	r2, r2, r3
	movs	r3, r1
	ldmia	r2!, {r0, r1}
	stmia	r3!, {r0, r1}
	.loc 3 647 0 discriminator 3
	add	r3, sp, #16
	movs	r0, r3
	bl	chunk_queue_next
	.loc 3 644 0 discriminator 3
	ldr	r3, [sp, #24]
	adds	r3, r3, #1
	str	r3, [sp, #24]
.L221:
	.loc 3 644 0 is_stmt 0 discriminator 1
	ldr	r2, [sp, #24]
	ldr	r3, [sp, #8]
	cmp	r2, r3
	bcc	.L222
.LBE12:
	.loc 3 650 0 is_stmt 1
	ldr	r3, .L224+4
	ldr	r2, [r3, #68]
	ldr	r3, [sp, #8]
	adds	r2, r2, r3
	ldr	r3, .L224+4
	str	r2, [r3, #68]
.L220:
.LBE11:
	.loc 3 653 0
	movs	r3, #31
	add	r3, r3, sp
	movs	r2, #1
	strb	r2, [r3]
.L219:
	.loc 3 657 0
	movs	r3, #31
	add	r3, r3, sp
	ldrb	r3, [r3]
	.loc 3 658 0
	movs	r0, r3
	add	sp, sp, #32
	@ sp needed
	pop	{r4, pc}
.L225:
	.align	2
.L224:
	.word	m_op_queue
	.word	m_chunk_queue
.LFE138:
	.size	op_enqueue, .-op_enqueue
	.section	.text.pages_init,"ax",%progbits
	.align	1
	.syntax unified
	.code	16
	.thumb_func
	.fpu softvfp
	.type	pages_init, %function
pages_init:
.LFB139:
	.loc 3 664 0
	@ args = 0, pretend = 0, frame = 24
	@ frame_needed = 0, uses_anonymous_args = 0
	push	{r4, lr}
.LCFI40:
	sub	sp, sp, #24
.LCFI41:
	.loc 3 665 0
	movs	r3, #0
	str	r3, [sp, #20]
	.loc 3 667 0
	movs	r3, #18
	add	r3, r3, sp
	movs	r2, #0
	strh	r2, [r3]
	.loc 3 668 0
	movs	r3, #17
	add	r3, r3, sp
	movs	r2, #0
	strb	r2, [r3]
.LBB13:
	.loc 3 670 0
	movs	r3, #14
	add	r3, r3, sp
	movs	r2, #0
	strh	r2, [r3]
	b	.L227
.L240:
.LBB14:
	.loc 3 672 0
	ldr	r3, .L242
	ldr	r3, [r3]
	movs	r2, #14
	add	r2, r2, sp
	ldrh	r2, [r2]
	lsls	r2, r2, #10
	adds	r3, r3, r2
	str	r3, [sp, #8]
	.loc 3 673 0
	mov	r3, sp
	adds	r4, r3, #7
	ldr	r3, [sp, #8]
	movs	r0, r3
	bl	page_identify
	movs	r3, r0
	strb	r3, [r4]
	.loc 3 675 0
	mov	r3, sp
	adds	r3, r3, #7
	ldrb	r3, [r3]
	cmp	r3, #1
	bne	.LCB2650
	b	.L229	@long jump
.LCB2650:
	cmp	r3, #3
	beq	.L230
	cmp	r3, #0
	beq	.L231
	.loc 3 743 0
	b	.L236
.L230:
	.loc 3 678 0
	ldr	r3, [sp, #8]
	movs	r0, r3
	bl	page_is_erased
	subs	r3, r0, #0
	beq	.L232
	.loc 3 680 0
	ldr	r3, .L242+4
	ldr	r3, [r3]
	cmp	r3, #0
	beq	.L233
	.loc 3 684 0
	movs	r3, #18
	add	r3, r3, sp
	ldrh	r2, [r3]
	ldr	r3, .L242+8
	lsls	r2, r2, #4
	movs	r1, #2
	strb	r1, [r2, r3]
	.loc 3 685 0
	movs	r3, #18
	add	r3, r3, sp
	ldrh	r3, [r3]
	ldr	r2, .L242+8
	lsls	r3, r3, #4
	adds	r3, r2, r3
	adds	r3, r3, #4
	ldr	r2, [sp, #8]
	str	r2, [r3]
	.loc 3 686 0
	movs	r3, #18
	add	r3, r3, sp
	ldrh	r3, [r3]
	ldr	r2, .L242+8
	lsls	r3, r3, #4
	adds	r3, r2, r3
	adds	r3, r3, #8
	movs	r2, #2
	strh	r2, [r3]
	.loc 3 690 0
	ldr	r3, .L242+12
	movs	r2, #18
	add	r2, r2, sp
	ldrh	r2, [r2]
	strh	r2, [r3, #2]
	.loc 3 691 0
	movs	r3, #18
	add	r3, r3, sp
	ldrh	r2, [r3]
	movs	r3, #18
	add	r3, r3, sp
	adds	r2, r2, #1
	strh	r2, [r3]
	b	.L234
.L233:
	.loc 3 696 0
	ldr	r3, .L242+4
	ldr	r2, [sp, #8]
	str	r2, [r3]
	.loc 3 697 0
	ldr	r3, .L242+4
	movs	r2, #2
	strh	r2, [r3, #4]
	.loc 3 698 0
	movs	r3, #17
	add	r3, r3, sp
	movs	r2, #1
	strb	r2, [r3]
.L234:
	.loc 3 701 0
	ldr	r3, [sp, #20]
	movs	r2, #1
	orrs	r3, r2
	str	r3, [sp, #20]
	.loc 3 708 0
	b	.L236
.L232:
	.loc 3 706 0
	movs	r3, #18
	add	r3, r3, sp
	ldrh	r3, [r3]
	movs	r2, #18
	add	r2, r2, sp
	adds	r1, r3, #1
	strh	r1, [r2]
	movs	r2, r3
	ldr	r3, .L242+8
	lsls	r2, r2, #4
	movs	r1, #3
	strb	r1, [r2, r3]
	.loc 3 708 0
	b	.L236
.L231:
	.loc 3 711 0
	movs	r3, #18
	add	r3, r3, sp
	ldrh	r2, [r3]
	ldr	r3, .L242+8
	lsls	r2, r2, #4
	movs	r1, #0
	strb	r1, [r2, r3]
	.loc 3 712 0
	movs	r3, #18
	add	r3, r3, sp
	ldrh	r3, [r3]
	ldr	r2, .L242+8
	lsls	r3, r3, #4
	adds	r3, r2, r3
	adds	r3, r3, #4
	ldr	r2, [sp, #8]
	str	r2, [r3]
	.loc 3 715 0
	movs	r3, #18
	add	r3, r3, sp
	ldrh	r3, [r3]
	lsls	r3, r3, #4
	adds	r3, r3, #8
	movs	r2, r3
	ldr	r3, .L242+8
	adds	r1, r2, r3
	movs	r3, #18
	add	r3, r3, sp
	ldrh	r3, [r3]
	lsls	r3, r3, #4
	adds	r3, r3, #8
	movs	r2, r3
	ldr	r3, .L242+8
	adds	r3, r2, r3
	adds	r2, r3, #6
	ldr	r3, [sp, #8]
	movs	r0, r3
	bl	page_scan
	.loc 3 717 0
	ldr	r3, [sp, #20]
	movs	r2, #2
	orrs	r3, r2
	str	r3, [sp, #20]
	.loc 3 718 0
	movs	r3, #18
	add	r3, r3, sp
	ldrh	r2, [r3]
	movs	r3, #18
	add	r3, r3, sp
	adds	r2, r2, #1
	strh	r2, [r3]
	.loc 3 720 0
	b	.L236
.L229:
	.loc 3 723 0
	movs	r3, #17
	add	r3, r3, sp
	ldrb	r3, [r3]
	cmp	r3, #0
	beq	.L237
	.loc 3 725 0
	movs	r3, #18
	add	r3, r3, sp
	ldrh	r2, [r3]
	ldr	r3, .L242+8
	lsls	r2, r2, #4
	movs	r1, #2
	strb	r1, [r2, r3]
	.loc 3 726 0
	movs	r3, #18
	add	r3, r3, sp
	ldrh	r0, [r3]
	ldr	r3, .L242+4
	ldr	r2, [r3]
	ldr	r1, .L242+8
	lsls	r3, r0, #4
	adds	r3, r1, r3
	adds	r3, r3, #4
	str	r2, [r3]
	.loc 3 727 0
	movs	r3, #18
	add	r3, r3, sp
	ldrh	r3, [r3]
	ldr	r2, .L242+8
	lsls	r3, r3, #4
	adds	r3, r2, r3
	adds	r3, r3, #8
	movs	r2, #2
	strh	r2, [r3]
	.loc 3 729 0
	movs	r3, #18
	add	r3, r3, sp
	ldrh	r2, [r3]
	movs	r3, #18
	add	r3, r3, sp
	adds	r2, r2, #1
	strh	r2, [r3]
.L237:
	.loc 3 732 0
	ldr	r3, .L242+4
	ldr	r2, [sp, #8]
	str	r2, [r3]
	.loc 3 735 0
	ldr	r1, .L242+16
	ldr	r3, [sp, #8]
	movs	r2, #0
	movs	r0, r3
	bl	page_scan
	.loc 3 737 0
	ldr	r3, .L242+4
	ldrh	r3, [r3, #4]
	.loc 3 738 0
	cmp	r3, #2
	bne	.L238
	.loc 3 738 0 is_stmt 0 discriminator 1
	movs	r3, #4
	b	.L239
.L238:
	.loc 3 738 0 discriminator 2
	movs	r3, #8
.L239:
	.loc 3 737 0 is_stmt 1
	ldr	r2, [sp, #20]
	orrs	r3, r2
	str	r3, [sp, #20]
	.loc 3 739 0
	nop
.L236:
.LBE14:
	.loc 3 670 0 discriminator 2
	movs	r3, #14
	add	r3, r3, sp
	ldrh	r2, [r3]
	movs	r3, #14
	add	r3, r3, sp
	adds	r2, r2, #1
	strh	r2, [r3]
.L227:
	.loc 3 670 0 is_stmt 0 discriminator 1
	movs	r3, #14
	add	r3, r3, sp
	ldrh	r3, [r3]
	cmp	r3, #2
	bhi	.LCB2877
	b	.L240	@long jump
.LCB2877:
.LBE13:
	.loc 3 747 0 is_stmt 1
	ldr	r3, [sp, #20]
	uxtb	r3, r3
	.loc 3 748 0
	movs	r0, r3
	add	sp, sp, #24
	@ sp needed
	pop	{r4, pc}
.L243:
	.align	2
.L242:
	.word	fs_config
	.word	m_swap_page
	.word	m_pages
	.word	m_gc
	.word	m_swap_page+4
.LFE139:
	.size	pages_init, .-pages_init
	.section	.text.record_header_write_begin,"ax",%progbits
	.align	1
	.syntax unified
	.code	16
	.thumb_func
	.fpu softvfp
	.type	record_header_write_begin, %function
record_header_write_begin:
.LFB140:
	.loc 3 753 0
	@ args = 0, pretend = 0, frame = 16
	@ frame_needed = 0, uses_anonymous_args = 0
	push	{lr}
.LCFI42:
	sub	sp, sp, #28
.LCFI43:
	str	r0, [sp, #12]
	str	r1, [sp, #8]
	.loc 3 756 0
	ldr	r3, [sp, #12]
	adds	r2, r3, #4
	.loc 3 755 0
	ldr	r1, [sp, #8]
	ldr	r0, .L248
	movs	r3, #0
	str	r3, [sp]
	movs	r3, #1
	bl	fs_store
	movs	r3, r0
	str	r3, [sp, #20]
	.loc 3 759 0
	ldr	r3, [sp, #12]
	movs	r2, #2
	strb	r2, [r3, #16]
	.loc 3 761 0
	ldr	r3, [sp, #20]
	cmp	r3, #0
	bne	.L245
	.loc 3 761 0 is_stmt 0 discriminator 1
	movs	r3, #0
	b	.L247
.L245:
	.loc 3 761 0 discriminator 2
	movs	r3, #14
.L247:
	.loc 3 762 0 is_stmt 1 discriminator 5
	movs	r0, r3
	add	sp, sp, #28
	@ sp needed
	pop	{pc}
.L249:
	.align	2
.L248:
	.word	fs_config
.LFE140:
	.size	record_header_write_begin, .-record_header_write_begin
	.section	.text.record_header_write_id,"ax",%progbits
	.align	1
	.syntax unified
	.code	16
	.thumb_func
	.fpu softvfp
	.type	record_header_write_id, %function
record_header_write_id:
.LFB141:
	.loc 3 766 0
	@ args = 0, pretend = 0, frame = 16
	@ frame_needed = 0, uses_anonymous_args = 0
	push	{lr}
.LCFI44:
	sub	sp, sp, #28
.LCFI45:
	str	r0, [sp, #12]
	str	r1, [sp, #8]
	.loc 3 768 0
	ldr	r3, [sp, #8]
	adds	r3, r3, #8
	movs	r1, r3
	.loc 3 769 0
	ldr	r3, [sp, #12]
	adds	r3, r3, #12
	movs	r2, r3
	.loc 3 768 0
	ldr	r0, .L256
	movs	r3, #0
	str	r3, [sp]
	movs	r3, #1
	bl	fs_store
	movs	r3, r0
	str	r3, [sp, #20]
	.loc 3 773 0
	ldr	r3, [sp, #12]
	ldrb	r3, [r3, #22]
	cmp	r3, #0
	beq	.L251
	.loc 3 773 0 is_stmt 0 discriminator 1
	movs	r2, #3
	b	.L252
.L251:
	.loc 3 773 0 discriminator 2
	movs	r2, #1
.L252:
	.loc 3 773 0 discriminator 4
	ldr	r3, [sp, #12]
	strb	r2, [r3, #16]
	.loc 3 776 0 is_stmt 1 discriminator 4
	ldr	r3, [sp, #20]
	cmp	r3, #0
	bne	.L253
	.loc 3 776 0 is_stmt 0 discriminator 1
	movs	r3, #0
	b	.L255
.L253:
	.loc 3 776 0 discriminator 2
	movs	r3, #14
.L255:
	.loc 3 777 0 is_stmt 1 discriminator 5
	movs	r0, r3
	add	sp, sp, #28
	@ sp needed
	pop	{pc}
.L257:
	.align	2
.L256:
	.word	fs_config
.LFE141:
	.size	record_header_write_id, .-record_header_write_id
	.section	.text.record_header_write_finalize,"ax",%progbits
	.align	1
	.syntax unified
	.code	16
	.thumb_func
	.fpu softvfp
	.type	record_header_write_finalize, %function
record_header_write_finalize:
.LFB142:
	.loc 3 781 0
	@ args = 0, pretend = 0, frame = 16
	@ frame_needed = 0, uses_anonymous_args = 0
	push	{lr}
.LCFI46:
	sub	sp, sp, #28
.LCFI47:
	str	r0, [sp, #12]
	str	r1, [sp, #8]
	.loc 3 783 0
	ldr	r3, [sp, #8]
	adds	r1, r3, #4
	.loc 3 784 0
	ldr	r3, [sp, #12]
	adds	r3, r3, #8
	movs	r2, r3
	.loc 3 783 0
	ldr	r0, .L264
	movs	r3, #0
	str	r3, [sp]
	movs	r3, #1
	bl	fs_store
	movs	r3, r0
	str	r3, [sp, #20]
	.loc 3 788 0
	ldr	r3, [sp, #12]
	ldrb	r3, [r3]
	cmp	r3, #3
	bne	.L259
	.loc 3 788 0 is_stmt 0 discriminator 1
	movs	r2, #5
	b	.L260
.L259:
	.loc 3 788 0 discriminator 2
	movs	r2, #6
.L260:
	.loc 3 788 0 discriminator 4
	ldr	r3, [sp, #12]
	strb	r2, [r3, #16]
	.loc 3 791 0 is_stmt 1 discriminator 4
	ldr	r3, [sp, #20]
	cmp	r3, #0
	bne	.L261
	.loc 3 791 0 is_stmt 0 discriminator 1
	movs	r3, #0
	b	.L263
.L261:
	.loc 3 791 0 discriminator 2
	movs	r3, #14
.L263:
	.loc 3 792 0 is_stmt 1 discriminator 5
	movs	r0, r3
	add	sp, sp, #28
	@ sp needed
	pop	{pc}
.L265:
	.align	2
.L264:
	.word	fs_config
.LFE142:
	.size	record_header_write_finalize, .-record_header_write_finalize
	.section	.text.record_header_flag_dirty,"ax",%progbits
	.align	1
	.syntax unified
	.code	16
	.thumb_func
	.fpu softvfp
	.type	record_header_flag_dirty, %function
record_header_flag_dirty:
.LFB143:
	.loc 3 796 0
	@ args = 0, pretend = 0, frame = 16
	@ frame_needed = 0, uses_anonymous_args = 0
	push	{r4, lr}
.LCFI48:
	sub	sp, sp, #24
.LCFI49:
	str	r0, [sp, #12]
	movs	r2, r1
	movs	r3, #10
	add	r3, r3, sp
	strh	r2, [r3]
	.loc 3 798 0
	movs	r4, #23
	add	r4, r4, sp
	ldr	r2, .L269
	ldr	r1, [sp, #12]
	ldr	r0, .L269+4
	movs	r3, #0
	str	r3, [sp]
	movs	r3, #1
	bl	fs_store
	movs	r3, r0
	strb	r3, [r4]
	.loc 3 801 0
	movs	r3, #23
	add	r3, r3, sp
	ldrb	r3, [r3]
	cmp	r3, #0
	beq	.L267
	.loc 3 803 0
	movs	r3, #14
	b	.L268
.L267:
	.loc 3 806 0
	movs	r3, #10
	add	r3, r3, sp
	ldrh	r3, [r3]
	ldr	r2, .L269+8
	lsls	r3, r3, #4
	adds	r3, r2, r3
	adds	r3, r3, #14
	movs	r2, #1
	strb	r2, [r3]
	.loc 3 808 0
	movs	r3, #0
.L268:
	.loc 3 809 0
	movs	r0, r3
	add	sp, sp, #24
	@ sp needed
	pop	{r4, pc}
.L270:
	.align	2
.L269:
	.word	m_fds_tl_dirty
	.word	fs_config
	.word	m_pages
.LFE143:
	.size	record_header_flag_dirty, .-record_header_flag_dirty
	.section	.text.record_find_and_delete,"ax",%progbits
	.align	1
	.syntax unified
	.code	16
	.thumb_func
	.fpu softvfp
	.type	record_find_and_delete, %function
record_find_and_delete:
.LFB144:
	.loc 3 813 0
	@ args = 0, pretend = 0, frame = 32
	@ frame_needed = 0, uses_anonymous_args = 0
	push	{lr}
.LCFI50:
	sub	sp, sp, #36
.LCFI51:
	str	r0, [sp, #4]
	.loc 3 816 0
	add	r3, sp, #8
	movs	r0, r3
	movs	r3, #12
	movs	r2, r3
	movs	r1, #0
	bl	memset
	.loc 3 818 0
	ldr	r3, [sp, #4]
	ldr	r2, [r3, #12]
	add	r3, sp, #8
	str	r2, [r3]
	.loc 3 820 0
	movs	r2, #22
	add	r2, r2, sp
	add	r3, sp, #8
	movs	r1, r2
	movs	r0, r3
	bl	record_find_by_desc
	subs	r3, r0, #0
	beq	.L272
.LBB15:
	.loc 3 822 0
	add	r3, sp, #8
	ldr	r3, [r3, #4]
	str	r3, [sp, #24]
	.loc 3 829 0
	ldr	r3, [sp, #24]
	ldrh	r2, [r3, #4]
	ldr	r3, [sp, #4]
	strh	r2, [r3, #6]
	.loc 3 830 0
	ldr	r3, [sp, #24]
	ldrh	r2, [r3]
	ldr	r3, [sp, #4]
	strh	r2, [r3, #8]
	.loc 3 833 0
	add	r3, sp, #8
	ldr	r2, [r3, #4]
	movs	r3, #22
	add	r3, r3, sp
	ldrh	r3, [r3]
	movs	r1, r3
	movs	r0, r2
	bl	record_header_flag_dirty
	movs	r3, r0
	str	r3, [sp, #28]
.LBE15:
	b	.L273
.L272:
	.loc 3 838 0
	movs	r3, #10
	str	r3, [sp, #28]
.L273:
	.loc 3 841 0
	ldr	r3, [sp, #28]
	.loc 3 842 0
	movs	r0, r3
	add	sp, sp, #36
	@ sp needed
	pop	{pc}
.LFE144:
	.size	record_find_and_delete, .-record_find_and_delete
	.section	.text.file_find_and_delete,"ax",%progbits
	.align	1
	.syntax unified
	.code	16
	.thumb_func
	.fpu softvfp
	.type	file_find_and_delete, %function
file_find_and_delete:
.LFB145:
	.loc 3 847 0
	@ args = 0, pretend = 0, frame = 24
	@ frame_needed = 0, uses_anonymous_args = 0
	push	{lr}
.LCFI52:
	sub	sp, sp, #28
.LCFI53:
	str	r0, [sp, #4]
	.loc 3 855 0
	ldr	r3, [sp, #4]
	adds	r0, r3, #6
	ldr	r3, .L279
	add	r2, sp, #8
	movs	r1, #0
	bl	record_find
	movs	r3, r0
	str	r3, [sp, #20]
	.loc 3 857 0
	ldr	r3, [sp, #20]
	cmp	r3, #0
	bne	.L276
	.loc 3 860 0
	add	r3, sp, #8
	ldr	r2, [r3, #4]
	ldr	r3, .L279
	ldrh	r3, [r3, #4]
	movs	r1, r3
	movs	r0, r2
	bl	record_header_flag_dirty
	movs	r3, r0
	str	r3, [sp, #20]
	b	.L277
.L276:
	.loc 3 865 0
	ldr	r3, .L279
	movs	r2, #8
	movs	r1, #0
	movs	r0, r3
	bl	memset
.L277:
	.loc 3 868 0
	ldr	r3, [sp, #20]
	.loc 3 869 0
	movs	r0, r3
	add	sp, sp, #28
	@ sp needed
	pop	{pc}
.L280:
	.align	2
.L279:
	.word	tok.6058
.LFE145:
	.size	file_find_and_delete, .-file_find_and_delete
	.section	.text.record_write_chunk,"ax",%progbits
	.align	1
	.syntax unified
	.code	16
	.thumb_func
	.fpu softvfp
	.type	record_write_chunk, %function
record_write_chunk:
.LFB146:
	.loc 3 875 0
	@ args = 0, pretend = 0, frame = 16
	@ frame_needed = 0, uses_anonymous_args = 0
	push	{r4, lr}
.LCFI54:
	sub	sp, sp, #24
.LCFI55:
	str	r0, [sp, #12]
	str	r1, [sp, #8]
	.loc 3 877 0
	movs	r3, #0
	str	r3, [sp, #16]
	.loc 3 880 0
	add	r3, sp, #16
	movs	r0, r3
	bl	chunk_queue_get_and_advance
	.loc 3 882 0
	ldr	r3, [sp, #12]
	ldrh	r3, [r3, #20]
	lsls	r3, r3, #2
	ldr	r2, [sp, #8]
	adds	r1, r2, r3
	.loc 3 883 0
	ldr	r3, [sp, #16]
	ldr	r2, [r3]
	ldr	r3, [sp, #16]
	.loc 3 882 0
	ldrh	r4, [r3, #4]
	ldr	r0, .L286
	movs	r3, #0
	str	r3, [sp]
	movs	r3, r4
	bl	fs_store
	movs	r3, r0
	str	r3, [sp, #20]
	.loc 3 886 0
	ldr	r3, [sp, #12]
	ldrh	r2, [r3, #20]
	ldr	r3, [sp, #16]
	ldrh	r3, [r3, #4]
	adds	r3, r2, r3
	uxth	r2, r3
	ldr	r3, [sp, #12]
	strh	r2, [r3, #20]
	.loc 3 891 0
	ldr	r3, [sp, #12]
	ldrb	r3, [r3, #22]
	subs	r3, r3, #1
	uxtb	r2, r3
	ldr	r3, [sp, #12]
	strb	r2, [r3, #22]
	.loc 3 893 0
	ldr	r3, [sp, #12]
	ldrb	r3, [r3, #22]
	cmp	r3, #0
	bne	.L282
	.loc 3 897 0
	ldr	r3, [sp, #12]
	movs	r2, #1
	strb	r2, [r3, #16]
.L282:
	.loc 3 900 0
	ldr	r3, [sp, #20]
	cmp	r3, #0
	bne	.L283
	.loc 3 900 0 is_stmt 0 discriminator 1
	movs	r3, #0
	b	.L285
.L283:
	.loc 3 900 0 discriminator 2
	movs	r3, #14
.L285:
	.loc 3 901 0 is_stmt 1
	movs	r0, r3
	add	sp, sp, #24
	@ sp needed
	pop	{r4, pc}
.L287:
	.align	2
.L286:
	.word	fs_config
.LFE146:
	.size	record_write_chunk, .-record_write_chunk
	.section	.text.gc_init,"ax",%progbits
	.align	1
	.syntax unified
	.code	16
	.thumb_func
	.fpu softvfp
	.type	gc_init, %function
gc_init:
.LFB147:
	.loc 3 926 0
	@ args = 0, pretend = 0, frame = 8
	@ frame_needed = 0, uses_anonymous_args = 0
	@ link register save eliminated.
	sub	sp, sp, #8
.LCFI56:
	.loc 3 927 0
	ldr	r3, .L291
	ldrh	r3, [r3, #8]
	adds	r3, r3, #1
	uxth	r2, r3
	ldr	r3, .L291
	strh	r2, [r3, #8]
	.loc 3 928 0
	ldr	r3, .L291
	movs	r2, #0
	strh	r2, [r3, #2]
	.loc 3 929 0
	ldr	r3, .L291
	movs	r2, #0
	strb	r2, [r3, #12]
.LBB16:
	.loc 3 933 0
	mov	r3, sp
	adds	r3, r3, #6
	movs	r2, #0
	strh	r2, [r3]
	b	.L289
.L290:
	.loc 3 935 0 discriminator 3
	mov	r3, sp
	adds	r3, r3, #6
	ldrh	r3, [r3]
	mov	r2, sp
	adds	r2, r2, #6
	ldrh	r1, [r2]
	ldr	r2, .L291+4
	lsls	r1, r1, #4
	ldrb	r2, [r1, r2]
	rsbs	r1, r2, #0
	adcs	r2, r2, r1
	uxtb	r1, r2
	ldr	r2, .L291
	adds	r3, r2, r3
	adds	r2, r1, #0
	strb	r2, [r3, #10]
	.loc 3 933 0 discriminator 3
	mov	r3, sp
	adds	r3, r3, #6
	ldrh	r2, [r3]
	mov	r3, sp
	adds	r3, r3, #6
	adds	r2, r2, #1
	strh	r2, [r3]
.L289:
	.loc 3 933 0 is_stmt 0 discriminator 1
	mov	r3, sp
	adds	r3, r3, #6
	ldrh	r3, [r3]
	cmp	r3, #1
	bls	.L290
.LBE16:
	.loc 3 937 0 is_stmt 1
	nop
	add	sp, sp, #8
	@ sp needed
	bx	lr
.L292:
	.align	2
.L291:
	.word	m_gc
	.word	m_pages
.LFE147:
	.size	gc_init, .-gc_init
	.section	.text.gc_page_next,"ax",%progbits
	.align	1
	.syntax unified
	.code	16
	.thumb_func
	.fpu softvfp
	.type	gc_page_next, %function
gc_page_next:
.LFB148:
	.loc 3 943 0
	@ args = 0, pretend = 0, frame = 16
	@ frame_needed = 0, uses_anonymous_args = 0
	@ link register save eliminated.
	sub	sp, sp, #16
.LCFI57:
	str	r0, [sp, #4]
	.loc 3 944 0
	movs	r3, #15
	add	r3, r3, sp
	movs	r2, #0
	strb	r2, [r3]
.LBB17:
	.loc 3 946 0
	add	r3, sp, #12
	movs	r2, #0
	strh	r2, [r3]
	b	.L294
.L297:
	.loc 3 948 0
	add	r3, sp, #12
	ldrh	r3, [r3]
	ldr	r2, .L299
	adds	r3, r2, r3
	ldrb	r3, [r3, #10]
	cmp	r3, #0
	beq	.L295
	.loc 3 951 0
	add	r3, sp, #12
	ldrh	r3, [r3]
	ldr	r2, .L299
	adds	r3, r2, r3
	movs	r2, #0
	strb	r2, [r3, #10]
	.loc 3 954 0
	add	r3, sp, #12
	ldrh	r3, [r3]
	ldr	r2, .L299+4
	lsls	r3, r3, #4
	adds	r3, r2, r3
	adds	r3, r3, #12
	ldrh	r3, [r3]
	cmp	r3, #0
	bne	.L295
	.loc 3 954 0 is_stmt 0 discriminator 1
	add	r3, sp, #12
	ldrh	r3, [r3]
	ldr	r2, .L299+4
	lsls	r3, r3, #4
	adds	r3, r2, r3
	adds	r3, r3, #14
	ldrb	r3, [r3]
	cmp	r3, #0
	beq	.L295
	.loc 3 956 0 is_stmt 1
	ldr	r3, [sp, #4]
	add	r2, sp, #12
	ldrh	r2, [r2]
	strh	r2, [r3]
	.loc 3 957 0
	movs	r3, #15
	add	r3, r3, sp
	movs	r2, #1
	strb	r2, [r3]
	.loc 3 958 0
	b	.L296
.L295:
	.loc 3 946 0 discriminator 2
	add	r3, sp, #12
	ldrh	r2, [r3]
	add	r3, sp, #12
	adds	r2, r2, #1
	strh	r2, [r3]
.L294:
	.loc 3 946 0 is_stmt 0 discriminator 1
	add	r3, sp, #12
	ldrh	r3, [r3]
	cmp	r3, #1
	bls	.L297
.L296:
.LBE17:
	.loc 3 963 0 is_stmt 1
	movs	r3, #15
	add	r3, r3, sp
	ldrb	r3, [r3]
	.loc 3 964 0
	movs	r0, r3
	add	sp, sp, #16
	@ sp needed
	bx	lr
.L300:
	.align	2
.L299:
	.word	m_gc
	.word	m_pages
.LFE148:
	.size	gc_page_next, .-gc_page_next
	.section	.text.gc_swap_erase,"ax",%progbits
	.align	1
	.syntax unified
	.code	16
	.thumb_func
	.fpu softvfp
	.type	gc_swap_erase, %function
gc_swap_erase:
.LFB149:
	.loc 3 968 0
	@ args = 0, pretend = 0, frame = 0
	@ frame_needed = 0, uses_anonymous_args = 0
	push	{r4, lr}
.LCFI58:
	.loc 3 969 0
	ldr	r3, .L303
	movs	r2, #5
	strb	r2, [r3]
	.loc 3 970 0
	ldr	r3, .L303+4
	movs	r2, #2
	strh	r2, [r3, #4]
	.loc 3 972 0
	ldr	r3, .L303+4
	ldr	r1, [r3]
	ldr	r0, .L303+8
	movs	r3, #0
	movs	r2, #1
	bl	fs_erase
	movs	r3, r0
	.loc 3 973 0
	movs	r0, r3
	@ sp needed
	pop	{r4, pc}
.L304:
	.align	2
.L303:
	.word	m_gc
	.word	m_swap_page
	.word	fs_config
.LFE149:
	.size	gc_swap_erase, .-gc_swap_erase
	.section	.text.gc_page_erase,"ax",%progbits
	.align	1
	.syntax unified
	.code	16
	.thumb_func
	.fpu softvfp
	.type	gc_page_erase, %function
gc_page_erase:
.LFB150:
	.loc 3 979 0
	@ args = 0, pretend = 0, frame = 8
	@ frame_needed = 0, uses_anonymous_args = 0
	push	{lr}
.LCFI59:
	sub	sp, sp, #12
.LCFI60:
	.loc 3 981 0
	mov	r3, sp
	adds	r3, r3, #2
	ldr	r2, .L309
	ldrh	r2, [r2, #2]
	strh	r2, [r3]
	.loc 3 983 0
	mov	r3, sp
	adds	r3, r3, #2
	ldrh	r3, [r3]
	ldr	r2, .L309+4
	lsls	r3, r3, #4
	adds	r3, r2, r3
	adds	r3, r3, #12
	ldrh	r3, [r3]
	cmp	r3, #0
	bne	.L306
	.loc 3 985 0
	mov	r3, sp
	adds	r3, r3, #2
	ldrh	r3, [r3]
	ldr	r2, .L309+4
	lsls	r3, r3, #4
	adds	r3, r2, r3
	adds	r3, r3, #4
	ldr	r1, [r3]
	ldr	r0, .L309+8
	movs	r3, #0
	movs	r2, #1
	bl	fs_erase
	movs	r3, r0
	str	r3, [sp, #4]
	.loc 3 986 0
	ldr	r3, .L309
	movs	r2, #4
	strb	r2, [r3]
	b	.L307
.L306:
	.loc 3 992 0
	bl	gc_swap_erase
	movs	r3, r0
	str	r3, [sp, #4]
.L307:
	.loc 3 995 0
	ldr	r3, [sp, #4]
	.loc 3 996 0
	movs	r0, r3
	add	sp, sp, #12
	@ sp needed
	pop	{pc}
.L310:
	.align	2
.L309:
	.word	m_gc
	.word	m_pages
	.word	fs_config
.LFE150:
	.size	gc_page_erase, .-gc_page_erase
	.section	.text.gc_record_copy,"ax",%progbits
	.align	1
	.syntax unified
	.code	16
	.thumb_func
	.fpu softvfp
	.type	gc_record_copy, %function
gc_record_copy:
.LFB151:
	.loc 3 1001 0
	@ args = 0, pretend = 0, frame = 16
	@ frame_needed = 0, uses_anonymous_args = 0
	push	{r4, lr}
.LCFI61:
	sub	sp, sp, #24
.LCFI62:
	.loc 3 1002 0
	ldr	r3, .L313
	ldr	r3, [r3, #4]
	str	r3, [sp, #20]
	.loc 3 1003 0
	ldr	r3, .L313+4
	ldr	r2, [r3]
	ldr	r3, .L313+4
	ldrh	r3, [r3, #4]
	lsls	r3, r3, #2
	adds	r3, r2, r3
	str	r3, [sp, #16]
	.loc 3 1004 0
	ldr	r3, [sp, #20]
	ldrh	r2, [r3, #2]
	movs	r3, #14
	add	r3, r3, sp
	adds	r2, r2, #3
	strh	r2, [r3]
	.loc 3 1006 0
	ldr	r3, .L313
	movs	r2, #3
	strb	r2, [r3]
	.loc 3 1010 0
	ldr	r3, .L313
	ldr	r2, [r3, #4]
	movs	r3, #14
	add	r3, r3, sp
	ldrh	r4, [r3]
	ldr	r1, [sp, #16]
	ldr	r0, .L313+8
	movs	r3, #0
	str	r3, [sp]
	movs	r3, r4
	bl	fs_store
	movs	r3, r0
	.loc 3 1011 0
	movs	r0, r3
	add	sp, sp, #24
	@ sp needed
	pop	{r4, pc}
.L314:
	.align	2
.L313:
	.word	m_gc
	.word	m_swap_page
	.word	fs_config
.LFE151:
	.size	gc_record_copy, .-gc_record_copy
	.section	.text.gc_record_find_next,"ax",%progbits
	.align	1
	.syntax unified
	.code	16
	.thumb_func
	.fpu softvfp
	.type	gc_record_find_next, %function
gc_record_find_next:
.LFB152:
	.loc 3 1015 0
	@ args = 0, pretend = 0, frame = 8
	@ frame_needed = 0, uses_anonymous_args = 0
	push	{lr}
.LCFI63:
	sub	sp, sp, #12
.LCFI64:
	.loc 3 1019 0
	ldr	r3, .L319
	ldrh	r3, [r3, #2]
	ldr	r2, .L319+4
	movs	r1, r2
	movs	r0, r3
	bl	record_find_next
	subs	r3, r0, #0
	beq	.L316
	.loc 3 1021 0
	bl	gc_record_copy
	movs	r3, r0
	str	r3, [sp, #4]
	b	.L317
.L316:
	.loc 3 1026 0
	bl	gc_page_erase
	movs	r3, r0
	str	r3, [sp, #4]
.L317:
	.loc 3 1029 0
	ldr	r3, [sp, #4]
	.loc 3 1030 0
	movs	r0, r3
	add	sp, sp, #12
	@ sp needed
	pop	{pc}
.L320:
	.align	2
.L319:
	.word	m_gc
	.word	m_gc+4
.LFE152:
	.size	gc_record_find_next, .-gc_record_find_next
	.section	.text.gc_swap_promote,"ax",%progbits
	.align	1
	.syntax unified
	.code	16
	.thumb_func
	.fpu softvfp
	.type	gc_swap_promote, %function
gc_swap_promote:
.LFB153:
	.loc 3 1035 0
	@ args = 0, pretend = 0, frame = 0
	@ frame_needed = 0, uses_anonymous_args = 0
	push	{r4, lr}
.LCFI65:
	.loc 3 1036 0
	ldr	r3, .L323
	movs	r2, #6
	strb	r2, [r3]
	.loc 3 1037 0
	ldr	r3, .L323
	ldrh	r3, [r3, #2]
	ldr	r2, .L323+4
	lsls	r3, r3, #4
	adds	r3, r2, r3
	adds	r3, r3, #4
	ldr	r3, [r3]
	movs	r0, r3
	bl	page_tag_write_data
	movs	r3, r0
	.loc 3 1038 0
	movs	r0, r3
	@ sp needed
	pop	{r4, pc}
.L324:
	.align	2
.L323:
	.word	m_gc
	.word	m_pages
.LFE153:
	.size	gc_swap_promote, .-gc_swap_promote
	.section	.text.gc_tag_new_swap,"ax",%progbits
	.align	1
	.syntax unified
	.code	16
	.thumb_func
	.fpu softvfp
	.type	gc_tag_new_swap, %function
gc_tag_new_swap:
.LFB154:
	.loc 3 1043 0
	@ args = 0, pretend = 0, frame = 0
	@ frame_needed = 0, uses_anonymous_args = 0
	push	{r4, lr}
.LCFI66:
	.loc 3 1044 0
	ldr	r3, .L327
	movs	r2, #7
	strb	r2, [r3]
	.loc 3 1045 0
	ldr	r3, .L327
	movs	r2, #0
	str	r2, [r3, #4]
	.loc 3 1046 0
	bl	page_tag_write_swap
	movs	r3, r0
	.loc 3 1047 0
	movs	r0, r3
	@ sp needed
	pop	{r4, pc}
.L328:
	.align	2
.L327:
	.word	m_gc
.LFE154:
	.size	gc_tag_new_swap, .-gc_tag_new_swap
	.section	.text.gc_next_page,"ax",%progbits
	.align	1
	.syntax unified
	.code	16
	.thumb_func
	.fpu softvfp
	.type	gc_next_page, %function
gc_next_page:
.LFB155:
	.loc 3 1051 0
	@ args = 0, pretend = 0, frame = 0
	@ frame_needed = 0, uses_anonymous_args = 0
	push	{r4, lr}
.LCFI67:
	.loc 3 1052 0
	ldr	r3, .L332
	movs	r0, r3
	bl	gc_page_next
	movs	r3, r0
	movs	r2, r3
	movs	r3, #1
	eors	r3, r2
	uxtb	r3, r3
	cmp	r3, #0
	beq	.L330
	.loc 3 1055 0
	ldr	r3, .L332+4
	movs	r2, #0
	strb	r2, [r3]
	.loc 3 1056 0
	ldr	r3, .L332+4
	movs	r2, #0
	strh	r2, [r3, #2]
	.loc 3 1057 0
	ldr	r3, .L332+4
	movs	r2, #0
	str	r2, [r3, #4]
	.loc 3 1059 0
	ldr	r3, .L332+8
	b	.L331
.L330:
	.loc 3 1062 0
	bl	gc_record_find_next
	movs	r3, r0
.L331:
	.loc 3 1063 0
	movs	r0, r3
	@ sp needed
	pop	{r4, pc}
.L333:
	.align	2
.L332:
	.word	m_gc+2
	.word	m_gc
	.word	7453
.LFE155:
	.size	gc_next_page, .-gc_next_page
	.section	.text.gc_update_swap_offset,"ax",%progbits
	.align	1
	.syntax unified
	.code	16
	.thumb_func
	.fpu softvfp
	.type	gc_update_swap_offset, %function
gc_update_swap_offset:
.LFB156:
	.loc 3 1068 0
	@ args = 0, pretend = 0, frame = 8
	@ frame_needed = 0, uses_anonymous_args = 0
	@ link register save eliminated.
	sub	sp, sp, #8
.LCFI68:
	.loc 3 1069 0
	ldr	r3, .L335
	ldr	r3, [r3, #4]
	str	r3, [sp, #4]
	.loc 3 1070 0
	ldr	r3, [sp, #4]
	ldrh	r2, [r3, #2]
	mov	r3, sp
	adds	r3, r3, #2
	adds	r2, r2, #3
	strh	r2, [r3]
	.loc 3 1072 0
	ldr	r3, .L335+4
	ldrh	r2, [r3, #4]
	mov	r3, sp
	adds	r3, r3, #2
	ldrh	r3, [r3]
	adds	r3, r2, r3
	uxth	r2, r3
	ldr	r3, .L335+4
	strh	r2, [r3, #4]
	.loc 3 1073 0
	nop
	add	sp, sp, #8
	@ sp needed
	bx	lr
.L336:
	.align	2
.L335:
	.word	m_gc
	.word	m_swap_page
.LFE156:
	.size	gc_update_swap_offset, .-gc_update_swap_offset
	.section	.text.gc_swap_pages,"ax",%progbits
	.align	1
	.syntax unified
	.code	16
	.thumb_func
	.fpu softvfp
	.type	gc_swap_pages, %function
gc_swap_pages:
.LFB157:
	.loc 3 1077 0
	@ args = 0, pretend = 0, frame = 8
	@ frame_needed = 0, uses_anonymous_args = 0
	@ link register save eliminated.
	sub	sp, sp, #8
.LCFI69:
	.loc 3 1080 0
	ldr	r3, .L338
	ldr	r3, [r3]
	str	r3, [sp, #4]
	.loc 3 1082 0
	ldr	r3, .L338+4
	ldrh	r3, [r3, #2]
	ldr	r2, .L338+8
	lsls	r3, r3, #4
	adds	r3, r2, r3
	adds	r3, r3, #4
	ldr	r2, [r3]
	ldr	r3, .L338
	str	r2, [r3]
	.loc 3 1083 0
	ldr	r3, .L338+4
	ldrh	r3, [r3, #2]
	ldr	r2, .L338+8
	lsls	r3, r3, #4
	adds	r3, r2, r3
	adds	r3, r3, #4
	ldr	r2, [sp, #4]
	str	r2, [r3]
	.loc 3 1086 0
	ldr	r3, .L338+4
	ldrh	r3, [r3, #2]
	movs	r0, r3
	ldr	r3, .L338
	ldrh	r1, [r3, #4]
	ldr	r2, .L338+8
	lsls	r3, r0, #4
	adds	r3, r2, r3
	adds	r3, r3, #8
	adds	r2, r1, #0
	strh	r2, [r3]
	.loc 3 1087 0
	ldr	r3, .L338
	movs	r2, #2
	strh	r2, [r3, #4]
	.loc 3 1088 0
	nop
	add	sp, sp, #8
	@ sp needed
	bx	lr
.L339:
	.align	2
.L338:
	.word	m_swap_page
	.word	m_gc
	.word	m_pages
.LFE157:
	.size	gc_swap_pages, .-gc_swap_pages
	.section	.text.gc_state_advance,"ax",%progbits
	.align	1
	.syntax unified
	.code	16
	.thumb_func
	.fpu softvfp
	.type	gc_state_advance, %function
gc_state_advance:
.LFB158:
	.loc 3 1092 0
	@ args = 0, pretend = 0, frame = 0
	@ frame_needed = 0, uses_anonymous_args = 0
	push	{r4, lr}
.LCFI70:
	.loc 3 1093 0
	ldr	r3, .L350
	ldrb	r3, [r3]
	cmp	r3, #7
	bhi	.L349
	lsls	r2, r3, #2
	ldr	r3, .L350+4
	adds	r3, r2, r3
	ldr	r3, [r3]
	mov	pc, r3
	.section	.rodata.gc_state_advance,"a",%progbits
	.align	2
.L343:
	.word	.L342
	.word	.L349
	.word	.L349
	.word	.L344
	.word	.L345
	.word	.L346
	.word	.L346
	.word	.L347
	.section	.text.gc_state_advance
.L342:
	.loc 3 1096 0
	bl	gc_init
	.loc 3 1097 0
	ldr	r3, .L350
	movs	r2, #1
	strb	r2, [r3]
	.loc 3 1098 0
	b	.L348
.L344:
	.loc 3 1102 0
	bl	gc_update_swap_offset
	.loc 3 1103 0
	ldr	r3, .L350
	movs	r2, #2
	strb	r2, [r3]
	.loc 3 1104 0
	b	.L348
.L345:
	.loc 3 1108 0
	bl	gc_swap_pages
	.loc 3 1109 0
	ldr	r3, .L350
	movs	r2, #6
	strb	r2, [r3]
	.loc 3 1110 0
	b	.L348
.L346:
	.loc 3 1117 0
	ldr	r3, .L350
	movs	r2, #7
	strb	r2, [r3]
	.loc 3 1118 0
	b	.L348
.L347:
	.loc 3 1121 0
	ldr	r3, .L350
	movs	r2, #1
	strb	r2, [r3]
	.loc 3 1122 0
	b	.L348
.L349:
	.loc 3 1126 0
	nop
.L348:
	.loc 3 1128 0
	nop
	@ sp needed
	pop	{r4, pc}
.L351:
	.align	2
.L350:
	.word	m_gc
	.word	.L343
.LFE158:
	.size	gc_state_advance, .-gc_state_advance
	.section	.text.init_execute,"ax",%progbits
	.align	1
	.syntax unified
	.code	16
	.thumb_func
	.fpu softvfp
	.type	init_execute, %function
init_execute:
.LFB159:
	.loc 3 1133 0
	@ args = 0, pretend = 0, frame = 24
	@ frame_needed = 0, uses_anonymous_args = 0
	push	{lr}
.LCFI71:
	sub	sp, sp, #28
.LCFI72:
	str	r0, [sp, #4]
	str	r1, [sp]
	.loc 3 1134 0
	movs	r3, #15
	str	r3, [sp, #20]
	.loc 3 1136 0
	ldr	r3, [sp, #4]
	cmp	r3, #0
	beq	.L353
	.loc 3 1139 0
	movs	r0, #1
	bl	flag_clear
	.loc 3 1140 0
	movs	r3, #1
	b	.L354
.L353:
	.loc 3 1143 0
	ldr	r3, [sp]
	ldrb	r3, [r3, #4]
	cmp	r3, #1
	beq	.L356
	bgt	.L357
	cmp	r3, #0
	beq	.L358
	.loc 3 1204 0
	b	.L361
.L357:
	.loc 3 1143 0
	cmp	r3, #2
	beq	.L359
	cmp	r3, #3
	beq	.L360
	.loc 3 1204 0
	b	.L361
.L358:
	.loc 3 1147 0
	bl	page_tag_write_swap
	movs	r3, r0
	str	r3, [sp, #20]
	.loc 3 1148 0
	ldr	r3, [sp]
	movs	r2, #1
	strb	r2, [r3, #4]
	.loc 3 1149 0
	b	.L361
.L356:
.LBB18:
	.loc 3 1154 0
	movs	r3, #19
	add	r3, r3, sp
	movs	r2, #0
	strb	r2, [r3]
.LBB19:
	.loc 3 1155 0
	add	r3, sp, #16
	movs	r2, #0
	strh	r2, [r3]
	b	.L362
.L365:
	.loc 3 1157 0
	add	r3, sp, #16
	ldrh	r2, [r3]
	ldr	r3, .L369
	lsls	r2, r2, #4
	ldrb	r3, [r2, r3]
	cmp	r3, #2
	bne	.L363
	.loc 3 1159 0
	add	r3, sp, #16
	ldrh	r3, [r3]
	ldr	r2, .L369
	lsls	r3, r3, #4
	adds	r3, r2, r3
	adds	r3, r3, #4
	ldr	r3, [r3]
	movs	r0, r3
	bl	page_tag_write_data
	movs	r3, r0
	str	r3, [sp, #20]
	.loc 3 1160 0
	add	r3, sp, #16
	ldrh	r2, [r3]
	ldr	r3, .L369
	lsls	r2, r2, #4
	movs	r1, #0
	strb	r1, [r2, r3]
	.loc 3 1161 0
	movs	r3, #19
	add	r3, r3, sp
	movs	r2, #1
	strb	r2, [r3]
	.loc 3 1162 0
	b	.L364
.L363:
	.loc 3 1155 0 discriminator 2
	add	r3, sp, #16
	ldrh	r2, [r3]
	add	r3, sp, #16
	adds	r2, r2, #1
	strh	r2, [r3]
.L362:
	.loc 3 1155 0 is_stmt 0 discriminator 1
	add	r3, sp, #16
	ldrh	r3, [r3]
	cmp	r3, #1
	bls	.L365
.L364:
.LBE19:
	.loc 3 1165 0 is_stmt 1
	movs	r3, #19
	add	r3, r3, sp
	ldrb	r3, [r3]
	movs	r2, #1
	eors	r3, r2
	uxtb	r3, r3
	cmp	r3, #0
	beq	.L368
	.loc 3 1167 0
	movs	r0, #2
	bl	flag_set
	.loc 3 1168 0
	movs	r0, #1
	bl	flag_clear
	.loc 3 1169 0
	ldr	r3, .L369+4
	b	.L354
.L359:
.LBE18:
	.loc 3 1175 0
	ldr	r3, .L369+8
	ldr	r1, [r3]
	ldr	r0, .L369+12
	movs	r3, #0
	movs	r2, #1
	bl	fs_erase
	movs	r3, r0
	str	r3, [sp, #20]
	.loc 3 1177 0
	ldr	r3, .L369+8
	movs	r2, #2
	strh	r2, [r3, #4]
	.loc 3 1178 0
	ldr	r3, [sp]
	movs	r2, #0
	strb	r2, [r3, #4]
	.loc 3 1179 0
	b	.L361
.L360:
.LBB20:
	.loc 3 1184 0
	ldr	r3, .L369+8
	ldr	r3, [r3]
	movs	r0, r3
	bl	page_tag_write_data
	movs	r3, r0
	str	r3, [sp, #20]
	.loc 3 1186 0
	movs	r3, #14
	add	r3, r3, sp
	ldr	r2, .L369+16
	ldrh	r2, [r2, #2]
	strh	r2, [r3]
	.loc 3 1187 0
	ldr	r3, .L369+8
	ldr	r3, [r3]
	str	r3, [sp, #8]
	.loc 3 1190 0
	movs	r3, #14
	add	r3, r3, sp
	ldrh	r3, [r3]
	ldr	r2, .L369
	lsls	r3, r3, #4
	adds	r3, r2, r3
	adds	r3, r3, #4
	ldr	r2, [r3]
	ldr	r3, .L369+8
	str	r2, [r3]
	.loc 3 1191 0
	movs	r3, #14
	add	r3, r3, sp
	ldrh	r3, [r3]
	ldr	r2, .L369
	lsls	r3, r3, #4
	adds	r3, r2, r3
	adds	r3, r3, #4
	ldr	r2, [sp, #8]
	str	r2, [r3]
	.loc 3 1194 0
	movs	r3, #14
	add	r3, r3, sp
	ldrh	r3, [r3]
	ldr	r2, .L369+8
	ldrh	r1, [r2, #4]
	ldr	r2, .L369
	lsls	r3, r3, #4
	adds	r3, r2, r3
	adds	r3, r3, #8
	adds	r2, r1, #0
	strh	r2, [r3]
	.loc 3 1195 0
	ldr	r3, .L369+8
	movs	r2, #2
	strh	r2, [r3, #4]
	.loc 3 1197 0
	movs	r3, #14
	add	r3, r3, sp
	ldrh	r2, [r3]
	ldr	r3, .L369
	lsls	r2, r2, #4
	movs	r1, #0
	strb	r1, [r2, r3]
	.loc 3 1198 0
	ldr	r3, [sp]
	movs	r2, #0
	strb	r2, [r3, #4]
.LBE20:
	.loc 3 1200 0
	b	.L361
.L368:
	.loc 3 1172 0
	nop
.L361:
	.loc 3 1207 0
	ldr	r3, [sp, #20]
	cmp	r3, #0
	beq	.L367
	.loc 3 1210 0
	movs	r0, #1
	bl	flag_clear
	.loc 3 1211 0
	movs	r3, #14
	b	.L354
.L367:
	.loc 3 1214 0
	movs	r3, #0
.L354:
	.loc 3 1215 0
	movs	r0, r3
	add	sp, sp, #28
	@ sp needed
	pop	{pc}
.L370:
	.align	2
.L369:
	.word	m_pages
	.word	7453
	.word	m_swap_page
	.word	fs_config
	.word	m_gc
.LFE159:
	.size	init_execute, .-init_execute
	.section	.text.write_execute,"ax",%progbits
	.align	1
	.syntax unified
	.code	16
	.thumb_func
	.fpu softvfp
	.type	write_execute, %function
write_execute:
.LFB160:
	.loc 3 1220 0
	@ args = 0, pretend = 0, frame = 24
	@ frame_needed = 0, uses_anonymous_args = 0
	push	{lr}
.LCFI73:
	sub	sp, sp, #28
.LCFI74:
	str	r0, [sp, #4]
	str	r1, [sp]
	.loc 3 1223 0
	ldr	r3, [sp]
	ldrh	r3, [r3, #18]
	lsls	r2, r3, #4
	ldr	r3, .L385
	adds	r3, r2, r3
	str	r3, [sp, #16]
	.loc 3 1232 0
	ldr	r3, [sp, #4]
	cmp	r3, #0
	beq	.L372
	.loc 3 1235 0
	ldr	r3, [sp]
	ldrh	r2, [r3, #6]
	ldr	r3, [sp, #16]
	movs	r1, r2
	movs	r0, r3
	bl	page_offsets_update
	.loc 3 1236 0
	movs	r3, #1
	b	.L373
.L372:
	.loc 3 1240 0
	ldr	r3, [sp, #16]
	ldr	r2, [r3, #4]
	ldr	r3, [sp, #16]
	ldrh	r3, [r3, #8]
	lsls	r3, r3, #2
	adds	r3, r2, r3
	str	r3, [sp, #12]
	.loc 3 1243 0
	ldr	r3, [sp]
	ldrb	r3, [r3, #16]
	cmp	r3, #6
	bhi	.L374
	lsls	r2, r3, #2
	ldr	r3, .L385+4
	adds	r3, r2, r3
	ldr	r3, [r3]
	mov	pc, r3
	.section	.rodata.write_execute,"a",%progbits
	.align	2
.L376:
	.word	.L375
	.word	.L377
	.word	.L378
	.word	.L379
	.word	.L380
	.word	.L381
	.word	.L382
	.section	.text.write_execute
.L380:
	.loc 3 1250 0
	ldr	r3, .L385+8
	movs	r2, #0
	str	r2, [r3, #4]
	.loc 3 1251 0
	ldr	r3, [sp]
	ldr	r2, [r3, #24]
	ldr	r3, .L385+8
	str	r2, [r3]
	.loc 3 1253 0
	ldr	r2, .L385+12
	ldr	r3, .L385+8
	movs	r1, r2
	movs	r0, r3
	bl	record_find_by_desc
	movs	r3, r0
	movs	r2, r3
	movs	r3, #1
	eors	r3, r2
	uxtb	r3, r3
	cmp	r3, #0
	beq	.L375
	.loc 3 1255 0
	movs	r3, #10
	b	.L373
.L375:
	.loc 3 1262 0
	ldr	r2, [sp, #12]
	ldr	r3, [sp]
	movs	r1, r2
	movs	r0, r3
	bl	record_header_write_begin
	movs	r3, r0
	str	r3, [sp, #20]
	.loc 3 1263 0
	b	.L383
.L378:
	.loc 3 1266 0
	ldr	r2, [sp, #12]
	ldr	r3, [sp]
	movs	r1, r2
	movs	r0, r3
	bl	record_header_write_id
	movs	r3, r0
	str	r3, [sp, #20]
	.loc 3 1267 0
	b	.L383
.L379:
	.loc 3 1270 0
	ldr	r2, [sp, #12]
	ldr	r3, [sp]
	movs	r1, r2
	movs	r0, r3
	bl	record_write_chunk
	movs	r3, r0
	str	r3, [sp, #20]
	.loc 3 1271 0
	b	.L383
.L377:
	.loc 3 1274 0
	ldr	r2, [sp, #12]
	ldr	r3, [sp]
	movs	r1, r2
	movs	r0, r3
	bl	record_header_write_finalize
	movs	r3, r0
	str	r3, [sp, #20]
	.loc 3 1275 0
	b	.L383
.L381:
	.loc 3 1278 0
	ldr	r3, .L385+8
	ldr	r2, [r3, #4]
	ldr	r3, .L385+12
	ldrh	r3, [r3]
	movs	r1, r3
	movs	r0, r2
	bl	record_header_flag_dirty
	movs	r3, r0
	str	r3, [sp, #20]
	.loc 3 1279 0
	ldr	r3, [sp]
	movs	r2, #6
	strb	r2, [r3, #16]
	.loc 3 1280 0
	b	.L383
.L382:
	.loc 3 1283 0
	ldr	r3, .L385+16
	str	r3, [sp, #20]
	.loc 3 1296 0
	b	.L383
.L374:
	.loc 3 1299 0
	movs	r3, #15
	str	r3, [sp, #20]
	.loc 3 1300 0
	nop
.L383:
	.loc 3 1305 0
	ldr	r3, [sp, #20]
	cmp	r3, #0
	beq	.L384
	.loc 3 1308 0
	ldr	r3, [sp]
	ldrh	r2, [r3, #6]
	ldr	r3, [sp, #16]
	movs	r1, r2
	movs	r0, r3
	bl	page_offsets_update
.L384:
	.loc 3 1311 0
	ldr	r3, [sp, #20]
.L373:
	.loc 3 1312 0
	movs	r0, r3
	add	sp, sp, #28
	@ sp needed
	pop	{pc}
.L386:
	.align	2
.L385:
	.word	m_pages
	.word	.L376
	.word	desc.6152
	.word	page.6153
	.word	7453
.LFE160:
	.size	write_execute, .-write_execute
	.section	.text.delete_execute,"ax",%progbits
	.align	1
	.syntax unified
	.code	16
	.thumb_func
	.fpu softvfp
	.type	delete_execute, %function
delete_execute:
.LFB161:
	.loc 3 1316 0
	@ args = 0, pretend = 0, frame = 16
	@ frame_needed = 0, uses_anonymous_args = 0
	push	{lr}
.LCFI75:
	sub	sp, sp, #20
.LCFI76:
	str	r0, [sp, #4]
	str	r1, [sp]
	.loc 3 1319 0
	ldr	r3, [sp, #4]
	cmp	r3, #0
	beq	.L388
	.loc 3 1321 0
	movs	r3, #1
	b	.L389
.L388:
	.loc 3 1324 0
	ldr	r3, [sp]
	ldrb	r3, [r3, #4]
	cmp	r3, #1
	beq	.L391
	cmp	r3, #2
	beq	.L392
	cmp	r3, #0
	bne	.L396
	.loc 3 1327 0
	ldr	r3, [sp]
	movs	r0, r3
	bl	record_find_and_delete
	movs	r3, r0
	str	r3, [sp, #12]
	.loc 3 1328 0
	ldr	r3, [sp]
	movs	r2, #2
	strb	r2, [r3, #4]
	.loc 3 1329 0
	b	.L394
.L391:
	.loc 3 1332 0
	ldr	r3, [sp]
	movs	r0, r3
	bl	file_find_and_delete
	movs	r3, r0
	str	r3, [sp, #12]
	.loc 3 1333 0
	ldr	r3, [sp, #12]
	cmp	r3, #10
	bne	.L397
	.loc 3 1337 0
	ldr	r3, .L398
	str	r3, [sp, #12]
	.loc 3 1339 0
	b	.L397
.L392:
	.loc 3 1342 0
	ldr	r3, .L398
	str	r3, [sp, #12]
	.loc 3 1343 0
	b	.L394
.L396:
	.loc 3 1346 0
	movs	r3, #15
	str	r3, [sp, #12]
	.loc 3 1347 0
	b	.L394
.L397:
	.loc 3 1339 0
	nop
.L394:
	.loc 3 1350 0
	ldr	r3, [sp, #12]
.L389:
	.loc 3 1351 0
	movs	r0, r3
	add	sp, sp, #20
	@ sp needed
	pop	{pc}
.L399:
	.align	2
.L398:
	.word	7453
.LFE161:
	.size	delete_execute, .-delete_execute
	.section	.text.gc_execute,"ax",%progbits
	.align	1
	.syntax unified
	.code	16
	.thumb_func
	.fpu softvfp
	.type	gc_execute, %function
gc_execute:
.LFB162:
	.loc 3 1355 0
	@ args = 0, pretend = 0, frame = 16
	@ frame_needed = 0, uses_anonymous_args = 0
	push	{lr}
.LCFI77:
	sub	sp, sp, #20
.LCFI78:
	str	r0, [sp, #4]
	.loc 3 1358 0
	ldr	r3, [sp, #4]
	cmp	r3, #0
	beq	.L401
	.loc 3 1360 0
	movs	r3, #1
	b	.L402
.L401:
	.loc 3 1363 0
	ldr	r3, .L414
	ldrb	r3, [r3, #12]
	cmp	r3, #0
	beq	.L403
	.loc 3 1365 0
	ldr	r3, .L414
	movs	r2, #0
	strb	r2, [r3, #12]
	b	.L404
.L403:
	.loc 3 1369 0
	bl	gc_state_advance
.L404:
	.loc 3 1372 0
	ldr	r3, .L414
	ldrb	r3, [r3]
	cmp	r3, #7
	bhi	.L405
	lsls	r2, r3, #2
	ldr	r3, .L414+4
	adds	r3, r2, r3
	ldr	r3, [r3]
	mov	pc, r3
	.section	.rodata.gc_execute,"a",%progbits
	.align	2
.L407:
	.word	.L405
	.word	.L406
	.word	.L408
	.word	.L409
	.word	.L410
	.word	.L405
	.word	.L411
	.word	.L412
	.section	.text.gc_execute
.L406:
	.loc 3 1375 0
	bl	gc_next_page
	movs	r3, r0
	str	r3, [sp, #12]
	.loc 3 1376 0
	b	.L413
.L408:
	.loc 3 1379 0
	bl	gc_record_find_next
	movs	r3, r0
	str	r3, [sp, #12]
	.loc 3 1380 0
	b	.L413
.L409:
	.loc 3 1383 0
	bl	gc_record_copy
	movs	r3, r0
	str	r3, [sp, #12]
	.loc 3 1384 0
	b	.L413
.L410:
	.loc 3 1387 0
	bl	gc_page_erase
	movs	r3, r0
	str	r3, [sp, #12]
	.loc 3 1388 0
	b	.L413
.L411:
	.loc 3 1391 0
	bl	gc_swap_promote
	movs	r3, r0
	str	r3, [sp, #12]
	.loc 3 1392 0
	b	.L413
.L412:
	.loc 3 1395 0
	bl	gc_tag_new_swap
	movs	r3, r0
	str	r3, [sp, #12]
	.loc 3 1396 0
	b	.L413
.L405:
	.loc 3 1400 0
	movs	r3, #15
	str	r3, [sp, #12]
	.loc 3 1401 0
	nop
.L413:
	.loc 3 1405 0
	ldr	r3, [sp, #12]
.L402:
	.loc 3 1406 0
	movs	r0, r3
	add	sp, sp, #20
	@ sp needed
	pop	{pc}
.L415:
	.align	2
.L414:
	.word	m_gc
	.word	.L407
.LFE162:
	.size	gc_execute, .-gc_execute
	.section	.text.queue_process,"ax",%progbits
	.align	1
	.syntax unified
	.code	16
	.thumb_func
	.fpu softvfp
	.type	queue_process, %function
queue_process:
.LFB163:
	.loc 3 1410 0
	@ args = 0, pretend = 0, frame = 40
	@ frame_needed = 0, uses_anonymous_args = 0
	push	{lr}
.LCFI79:
	sub	sp, sp, #44
.LCFI80:
	movs	r2, r0
	mov	r3, sp
	adds	r3, r3, #7
	strb	r2, [r3]
	.loc 3 1412 0
	ldr	r3, .L430
	ldr	r2, [r3, #112]
	movs	r3, r2
	lsls	r3, r3, #3
	subs	r3, r3, r2
	lsls	r3, r3, #2
	ldr	r2, .L430
	adds	r3, r3, r2
	str	r3, [sp, #32]
	.loc 3 1414 0
	ldr	r3, [sp, #32]
	ldrb	r3, [r3]
	cmp	r3, #6
	bhi	.L417
	lsls	r2, r3, #2
	ldr	r3, .L430+4
	adds	r3, r2, r3
	ldr	r3, [r3]
	mov	pc, r3
	.section	.rodata.queue_process,"a",%progbits
	.align	2
.L419:
	.word	.L417
	.word	.L418
	.word	.L420
	.word	.L420
	.word	.L421
	.word	.L421
	.word	.L422
	.section	.text.queue_process
.L418:
	.loc 3 1417 0
	mov	r3, sp
	adds	r3, r3, #7
	ldrb	r3, [r3]
	ldr	r2, [sp, #32]
	movs	r1, r2
	movs	r0, r3
	bl	init_execute
	movs	r3, r0
	str	r3, [sp, #36]
	.loc 3 1418 0
	b	.L423
.L420:
	.loc 3 1422 0
	mov	r3, sp
	adds	r3, r3, #7
	ldrb	r3, [r3]
	ldr	r2, [sp, #32]
	movs	r1, r2
	movs	r0, r3
	bl	write_execute
	movs	r3, r0
	str	r3, [sp, #36]
	.loc 3 1423 0
	b	.L423
.L421:
	.loc 3 1427 0
	mov	r3, sp
	adds	r3, r3, #7
	ldrb	r3, [r3]
	ldr	r2, [sp, #32]
	movs	r1, r2
	movs	r0, r3
	bl	delete_execute
	movs	r3, r0
	str	r3, [sp, #36]
	.loc 3 1428 0
	b	.L423
.L422:
	.loc 3 1431 0
	mov	r3, sp
	adds	r3, r3, #7
	ldrb	r3, [r3]
	movs	r0, r3
	bl	gc_execute
	movs	r3, r0
	str	r3, [sp, #36]
	.loc 3 1432 0
	b	.L423
.L417:
	.loc 3 1435 0
	movs	r3, #15
	str	r3, [sp, #36]
	.loc 3 1436 0
	nop
.L423:
	.loc 3 1439 0
	ldr	r3, [sp, #36]
	cmp	r3, #0
	beq	.L429
.LBB21:
	.loc 3 1443 0
	ldr	r3, [sp, #36]
	ldr	r2, .L430+8
	cmp	r3, r2
	bne	.L425
	.loc 3 1445 0
	add	r3, sp, #12
	movs	r2, #0
	str	r2, [r3, #4]
	b	.L426
.L425:
	.loc 3 1451 0
	add	r3, sp, #12
	ldr	r2, [sp, #36]
	str	r2, [r3, #4]
	.loc 3 1454 0
	ldr	r3, [sp, #32]
	movs	r0, r3
	bl	chunk_queue_skip
.L426:
	.loc 3 1457 0
	add	r2, sp, #12
	ldr	r3, [sp, #32]
	movs	r1, r2
	movs	r0, r3
	bl	event_prepare
	.loc 3 1458 0
	add	r3, sp, #12
	movs	r0, r3
	bl	event_send
	.loc 3 1461 0
	bl	queue_advance
	subs	r3, r0, #0
	beq	.L427
	.loc 3 1463 0
	movs	r0, #0
	bl	queue_process
.LBE21:
	.loc 3 1472 0
	b	.L429
.L427:
.LBB22:
	.loc 3 1469 0
	movs	r0, #4
	bl	flag_clear
.L429:
.LBE22:
	.loc 3 1472 0
	nop
	add	sp, sp, #44
	@ sp needed
	pop	{pc}
.L431:
	.align	2
.L430:
	.word	m_op_queue
	.word	.L419
	.word	7453
.LFE163:
	.size	queue_process, .-queue_process
	.section	.text.queue_start,"ax",%progbits
	.align	1
	.syntax unified
	.code	16
	.thumb_func
	.fpu softvfp
	.type	queue_start, %function
queue_start:
.LFB164:
	.loc 3 1476 0
	@ args = 0, pretend = 0, frame = 0
	@ frame_needed = 0, uses_anonymous_args = 0
	push	{r4, lr}
.LCFI81:
	.loc 3 1477 0
	movs	r0, #4
	bl	flag_is_set
	movs	r3, r0
	movs	r2, r3
	movs	r3, #1
	eors	r3, r2
	uxtb	r3, r3
	cmp	r3, #0
	beq	.L434
	.loc 3 1479 0
	movs	r0, #4
	bl	flag_set
	.loc 3 1480 0
	movs	r0, #0
	bl	queue_process
.L434:
	.loc 3 1482 0
	nop
	@ sp needed
	pop	{r4, pc}
.LFE164:
	.size	queue_start, .-queue_start
	.section	.text.fs_event_handler,"ax",%progbits
	.align	1
	.syntax unified
	.code	16
	.thumb_func
	.fpu softvfp
	.type	fs_event_handler, %function
fs_event_handler:
.LFB165:
	.loc 3 1486 0
	@ args = 0, pretend = 0, frame = 8
	@ frame_needed = 0, uses_anonymous_args = 0
	push	{lr}
.LCFI82:
	sub	sp, sp, #12
.LCFI83:
	str	r0, [sp, #4]
	movs	r2, r1
	mov	r3, sp
	adds	r3, r3, #3
	strb	r2, [r3]
	.loc 3 1487 0
	mov	r3, sp
	adds	r3, r3, #3
	ldrb	r3, [r3]
	movs	r0, r3
	bl	queue_process
	.loc 3 1488 0
	nop
	add	sp, sp, #12
	@ sp needed
	pop	{pc}
.LFE165:
	.size	fs_event_handler, .-fs_event_handler
	.section	.text.write_enqueue,"ax",%progbits
	.align	1
	.syntax unified
	.code	16
	.thumb_func
	.fpu softvfp
	.type	write_enqueue, %function
write_enqueue:
.LFB166:
	.loc 3 1496 0
	@ args = 0, pretend = 0, frame = 64
	@ frame_needed = 0, uses_anonymous_args = 0
	push	{lr}
.LCFI84:
	sub	sp, sp, #68
.LCFI85:
	str	r0, [sp, #12]
	str	r1, [sp, #8]
	str	r2, [sp, #4]
	movs	r2, r3
	mov	r3, sp
	adds	r3, r3, #3
	strb	r2, [r3]
	.loc 3 1500 0
	movs	r3, #54
	add	r3, r3, sp
	movs	r2, #0
	strh	r2, [r3]
	.loc 3 1501 0
	movs	r3, #62
	add	r3, r3, sp
	movs	r2, #0
	strh	r2, [r3]
	.loc 3 1503 0
	movs	r0, #2
	bl	flag_is_set
	movs	r3, r0
	movs	r2, r3
	movs	r3, #1
	eors	r3, r2
	uxtb	r3, r3
	cmp	r3, #0
	beq	.L437
	.loc 3 1505 0
	movs	r3, #2
	b	.L450
.L437:
	.loc 3 1508 0
	ldr	r3, [sp, #8]
	cmp	r3, #0
	bne	.L439
	.loc 3 1510 0
	movs	r3, #5
	b	.L450
.L439:
	.loc 3 1513 0
	ldr	r3, [sp, #8]
	ldrh	r3, [r3]
	ldr	r2, .L451
	cmp	r3, r2
	beq	.L440
	.loc 3 1514 0 discriminator 1
	ldr	r3, [sp, #8]
	ldrh	r3, [r3, #2]
	.loc 3 1513 0 discriminator 1
	cmp	r3, #0
	bne	.L441
.L440:
	.loc 3 1516 0
	movs	r3, #4
	b	.L450
.L441:
	.loc 3 1519 0
	ldr	r3, [sp, #8]
	ldr	r2, [r3, #4]
	.loc 3 1520 0
	ldr	r3, [sp, #8]
	ldrh	r3, [r3, #8]
	.loc 3 1519 0
	movs	r1, r3
	movs	r0, r2
	bl	chunk_is_aligned
	movs	r3, r0
	movs	r2, r3
	movs	r3, #1
	eors	r3, r2
	uxtb	r3, r3
	cmp	r3, #0
	beq	.L442
	.loc 3 1522 0
	movs	r3, #3
	b	.L450
.L442:
	.loc 3 1526 0
	ldr	r3, [sp, #4]
	cmp	r3, #0
	bne	.L443
.LBB23:
	.loc 3 1529 0
	movs	r3, #0
	str	r3, [sp, #56]
	b	.L444
.L445:
	.loc 3 1531 0 discriminator 3
	ldr	r3, [sp, #8]
	ldr	r2, [r3, #4]
	ldr	r3, [sp, #56]
	lsls	r3, r3, #3
	adds	r3, r2, r3
	ldrh	r1, [r3, #4]
	movs	r3, #62
	add	r3, r3, sp
	movs	r2, #62
	add	r2, r2, sp
	ldrh	r2, [r2]
	adds	r2, r1, r2
	strh	r2, [r3]
	.loc 3 1529 0 discriminator 3
	ldr	r3, [sp, #56]
	adds	r3, r3, #1
	str	r3, [sp, #56]
.L444:
	.loc 3 1529 0 is_stmt 0 discriminator 1
	ldr	r3, [sp, #8]
	ldrh	r3, [r3, #8]
	movs	r2, r3
	ldr	r3, [sp, #56]
	cmp	r2, r3
	bhi	.L445
.LBE23:
	.loc 3 1535 0 is_stmt 1
	movs	r2, #18
	add	r2, r2, sp
	movs	r3, #62
	add	r3, r3, sp
	ldrh	r3, [r3]
	movs	r1, r2
	movs	r0, r3
	bl	write_space_reserve
	movs	r3, r0
	str	r3, [sp, #48]
	.loc 3 1537 0
	ldr	r3, [sp, #48]
	cmp	r3, #0
	beq	.L446
	.loc 3 1541 0
	ldr	r3, [sp, #48]
	b	.L450
.L443:
	.loc 3 1546 0
	ldr	r3, [sp, #4]
	ldrh	r2, [r3]
	movs	r3, #18
	add	r3, r3, sp
	strh	r2, [r3]
	.loc 3 1547 0
	movs	r3, #62
	add	r3, r3, sp
	ldr	r2, [sp, #4]
	ldrh	r2, [r2, #2]
	strh	r2, [r3]
.L446:
	.loc 3 1551 0
	add	r3, sp, #20
	mov	r2, sp
	adds	r2, r2, #3
	ldrb	r2, [r2]
	strb	r2, [r3]
	.loc 3 1552 0
	add	r3, sp, #20
	movs	r2, #0
	strb	r2, [r3, #16]
	.loc 3 1553 0
	movs	r3, #18
	add	r3, r3, sp
	ldrh	r2, [r3]
	add	r3, sp, #20
	strh	r2, [r3, #18]
	.loc 3 1554 0
	ldr	r3, [sp, #8]
	ldrh	r3, [r3, #8]
	uxtb	r2, r3
	add	r3, sp, #20
	strb	r2, [r3, #22]
	.loc 3 1555 0
	add	r3, sp, #20
	movs	r2, #3
	strh	r2, [r3, #20]
	.loc 3 1556 0
	bl	record_id_new
	movs	r2, r0
	add	r3, sp, #20
	str	r2, [r3, #12]
	.loc 3 1557 0
	ldr	r3, [sp, #8]
	ldrh	r2, [r3]
	add	r3, sp, #20
	strh	r2, [r3, #8]
	.loc 3 1558 0
	ldr	r3, [sp, #8]
	ldrh	r2, [r3, #2]
	add	r3, sp, #20
	strh	r2, [r3, #4]
	.loc 3 1559 0
	add	r3, sp, #20
	movs	r2, #62
	add	r2, r2, sp
	ldrh	r2, [r2]
	strh	r2, [r3, #6]
	.loc 3 1561 0
	mov	r3, sp
	adds	r3, r3, #3
	ldrb	r3, [r3]
	cmp	r3, #3
	bne	.L447
	.loc 3 1563 0
	add	r3, sp, #20
	movs	r2, #4
	strb	r2, [r3, #16]
	.loc 3 1565 0
	ldr	r3, [sp, #12]
	ldr	r2, [r3]
	add	r3, sp, #20
	str	r2, [r3, #24]
.L447:
	.loc 3 1582 0
	add	r3, sp, #20
	movs	r2, #54
	add	r2, r2, sp
	ldrh	r2, [r2]
	strh	r2, [r3, #10]
	.loc 3 1585 0
	ldr	r3, [sp, #8]
	ldrh	r3, [r3, #8]
	movs	r1, r3
	ldr	r3, [sp, #8]
	ldr	r2, [r3, #4]
	add	r3, sp, #20
	movs	r0, r3
	bl	op_enqueue
	movs	r3, r0
	movs	r2, r3
	movs	r3, #1
	eors	r3, r2
	uxtb	r3, r3
	cmp	r3, #0
	beq	.L448
	.loc 3 1589 0
	movs	r3, #18
	add	r3, r3, sp
	ldrh	r2, [r3]
	movs	r3, #62
	add	r3, r3, sp
	ldrh	r3, [r3]
	movs	r1, r2
	movs	r0, r3
	bl	write_space_free
	.loc 3 1592 0
	movs	r3, #8
	b	.L450
.L448:
	.loc 3 1596 0
	ldr	r3, [sp, #12]
	cmp	r3, #0
	beq	.L449
	.loc 3 1598 0
	ldr	r3, [sp, #12]
	movs	r2, #0
	str	r2, [r3, #4]
	.loc 3 1600 0
	add	r3, sp, #20
	ldr	r2, [r3, #12]
	ldr	r3, [sp, #12]
	str	r2, [r3]
	.loc 3 1601 0
	ldr	r3, [sp, #12]
	movs	r2, #0
	strb	r2, [r3, #10]
	.loc 3 1602 0
	ldr	r3, .L451+4
	ldrh	r2, [r3, #8]
	ldr	r3, [sp, #12]
	strh	r2, [r3, #8]
.L449:
	.loc 3 1606 0
	bl	queue_start
	.loc 3 1608 0
	movs	r3, #0
.L450:
	.loc 3 1609 0 discriminator 1
	movs	r0, r3
	add	sp, sp, #68
	@ sp needed
	pop	{pc}
.L452:
	.align	2
.L451:
	.word	65535
	.word	m_gc
.LFE166:
	.size	write_enqueue, .-write_enqueue
	.section	.text.fds_register,"ax",%progbits
	.align	1
	.global	fds_register
	.syntax unified
	.code	16
	.thumb_func
	.fpu softvfp
	.type	fds_register, %function
fds_register:
.LFB167:
	.loc 3 1613 0
	@ args = 0, pretend = 0, frame = 16
	@ frame_needed = 0, uses_anonymous_args = 0
	@ link register save eliminated.
	sub	sp, sp, #16
.LCFI86:
	str	r0, [sp, #4]
	.loc 3 1617 0
	ldr	r3, .L457
	ldrb	r3, [r3]
	cmp	r3, #8
	bne	.L454
	.loc 3 1619 0
	movs	r3, #12
	str	r3, [sp, #12]
	b	.L455
.L454:
	.loc 3 1623 0
	ldr	r3, .L457
	ldrb	r3, [r3]
	movs	r2, r3
	ldr	r3, .L457+4
	lsls	r2, r2, #2
	ldr	r1, [sp, #4]
	str	r1, [r2, r3]
	.loc 3 1624 0
	ldr	r3, .L457
	ldrb	r3, [r3]
	adds	r3, r3, #1
	uxtb	r2, r3
	ldr	r3, .L457
	strb	r2, [r3]
	.loc 3 1626 0
	movs	r3, #0
	str	r3, [sp, #12]
.L455:
	.loc 3 1630 0
	ldr	r3, [sp, #12]
	.loc 3 1631 0
	movs	r0, r3
	add	sp, sp, #16
	@ sp needed
	bx	lr
.L458:
	.align	2
.L457:
	.word	m_users
	.word	m_cb_table
.LFE167:
	.size	fds_register, .-fds_register
	.section	.text.fds_init,"ax",%progbits
	.align	1
	.global	fds_init
	.syntax unified
	.code	16
	.thumb_func
	.fpu softvfp
	.type	fds_init, %function
fds_init:
.LFB168:
	.loc 3 1635 0
	@ args = 0, pretend = 0, frame = 56
	@ frame_needed = 0, uses_anonymous_args = 0
	push	{r4, lr}
.LCFI87:
	sub	sp, sp, #56
.LCFI88:
	.loc 3 1636 0
	add	r3, sp, #32
	movs	r0, r3
	movs	r3, #20
	movs	r2, r3
	movs	r1, #0
	bl	memset
	.loc 3 1643 0
	movs	r0, #2
	bl	flag_is_set
	subs	r3, r0, #0
	beq	.L460
	.loc 3 1645 0
	add	r3, sp, #32
	movs	r0, r3
	bl	event_send
	.loc 3 1646 0
	movs	r3, #0
	b	.L472
.L460:
	.loc 3 1649 0
	movs	r0, #1
	bl	flag_is_set
	subs	r3, r0, #0
	beq	.L462
	.loc 3 1651 0
	movs	r3, #0
	b	.L472
.L462:
	.loc 3 1654 0
	movs	r0, #1
	bl	flag_set
	.loc 3 1656 0
	bl	fs_init
	.loc 3 1661 0
	add	r3, sp, #4
	movs	r2, #1
	strb	r2, [r3]
	.loc 3 1663 0
	movs	r4, #55
	add	r4, r4, sp
	bl	pages_init
	movs	r3, r0
	strb	r3, [r4]
	.loc 3 1665 0
	movs	r3, #55
	add	r3, r3, sp
	ldrb	r3, [r3]
	cmp	r3, #11
	bhi	.L473
	lsls	r2, r3, #2
	ldr	r3, .L474
	adds	r3, r2, r3
	ldr	r3, [r3]
	mov	pc, r3
	.section	.rodata.fds_init,"a",%progbits
	.align	2
.L465:
	.word	.L464
	.word	.L466
	.word	.L464
	.word	.L466
	.word	.L473
	.word	.L467
	.word	.L468
	.word	.L467
	.word	.L473
	.word	.L469
	.word	.L470
	.word	.L469
	.section	.text.fds_init
.L464:
	.loc 3 1669 0
	movs	r3, #11
	b	.L472
.L468:
	.loc 3 1673 0
	movs	r0, #2
	bl	flag_set
	.loc 3 1674 0
	movs	r0, #1
	bl	flag_clear
	.loc 3 1675 0
	add	r3, sp, #32
	movs	r0, r3
	bl	event_send
	.loc 3 1676 0
	movs	r3, #0
	b	.L472
.L466:
	.loc 3 1680 0
	add	r3, sp, #4
	movs	r2, #0
	strb	r2, [r3, #4]
	.loc 3 1681 0
	b	.L471
.L469:
	.loc 3 1685 0
	add	r3, sp, #4
	movs	r2, #3
	strb	r2, [r3, #4]
	.loc 3 1686 0
	b	.L471
.L470:
	.loc 3 1689 0
	add	r3, sp, #4
	movs	r2, #2
	strb	r2, [r3, #4]
	.loc 3 1690 0
	b	.L471
.L467:
	.loc 3 1694 0
	add	r3, sp, #4
	movs	r2, #1
	strb	r2, [r3, #4]
	.loc 3 1695 0
	b	.L471
.L473:
	.loc 3 1699 0
	nop
.L471:
	.loc 3 1703 0
	add	r3, sp, #4
	movs	r2, #0
	movs	r1, #0
	movs	r0, r3
	bl	op_enqueue
	.loc 3 1705 0
	bl	queue_start
	.loc 3 1707 0
	movs	r3, #0
.L472:
	.loc 3 1708 0 discriminator 1
	movs	r0, r3
	add	sp, sp, #56
	@ sp needed
	pop	{r4, pc}
.L475:
	.align	2
.L474:
	.word	.L465
.LFE168:
	.size	fds_init, .-fds_init
	.section	.text.fds_record_open,"ax",%progbits
	.align	1
	.global	fds_record_open
	.syntax unified
	.code	16
	.thumb_func
	.fpu softvfp
	.type	fds_record_open, %function
fds_record_open:
.LFB169:
	.loc 3 1713 0
	@ args = 0, pretend = 0, frame = 16
	@ frame_needed = 0, uses_anonymous_args = 0
	push	{lr}
.LCFI89:
	sub	sp, sp, #20
.LCFI90:
	str	r0, [sp, #4]
	str	r1, [sp]
	.loc 3 1716 0
	ldr	r3, [sp, #4]
	cmp	r3, #0
	beq	.L477
	.loc 3 1716 0 is_stmt 0 discriminator 1
	ldr	r3, [sp]
	cmp	r3, #0
	bne	.L478
.L477:
	.loc 3 1718 0 is_stmt 1
	movs	r3, #5
	b	.L481
.L478:
	.loc 3 1722 0
	movs	r2, #10
	add	r2, r2, sp
	ldr	r3, [sp, #4]
	movs	r1, r2
	movs	r0, r3
	bl	record_find_by_desc
	subs	r3, r0, #0
	beq	.L480
.LBB24:
	.loc 3 1724 0
	ldr	r3, [sp, #4]
	ldr	r3, [r3, #4]
	str	r3, [sp, #12]
	.loc 3 1736 0
	movs	r3, #10
	add	r3, r3, sp
	ldrh	r3, [r3]
	ldr	r1, .L482
	lsls	r2, r3, #4
	adds	r2, r1, r2
	adds	r2, r2, #12
	ldrh	r2, [r2]
	adds	r2, r2, #1
	uxth	r1, r2
	ldr	r2, .L482
	lsls	r3, r3, #4
	adds	r3, r2, r3
	adds	r3, r3, #12
	adds	r2, r1, #0
	strh	r2, [r3]
	.loc 3 1740 0
	ldr	r3, [sp]
	ldr	r2, [sp, #12]
	str	r2, [r3]
	.loc 3 1741 0
	ldr	r3, [sp, #4]
	ldr	r3, [r3, #4]
	adds	r3, r3, #12
	movs	r2, r3
	ldr	r3, [sp]
	str	r2, [r3, #4]
	.loc 3 1744 0
	ldr	r3, [sp, #4]
	movs	r2, #1
	strb	r2, [r3, #10]
	.loc 3 1746 0
	movs	r3, #0
	b	.L481
.L480:
.LBE24:
	.loc 3 1751 0
	movs	r3, #10
.L481:
	.loc 3 1752 0 discriminator 1
	movs	r0, r3
	add	sp, sp, #20
	@ sp needed
	pop	{pc}
.L483:
	.align	2
.L482:
	.word	m_pages
.LFE169:
	.size	fds_record_open, .-fds_record_open
	.section	.text.fds_record_close,"ax",%progbits
	.align	1
	.global	fds_record_close
	.syntax unified
	.code	16
	.thumb_func
	.fpu softvfp
	.type	fds_record_close, %function
fds_record_close:
.LFB170:
	.loc 3 1756 0
	@ args = 0, pretend = 0, frame = 16
	@ frame_needed = 0, uses_anonymous_args = 0
	push	{lr}
.LCFI91:
	sub	sp, sp, #20
.LCFI92:
	str	r0, [sp, #4]
	.loc 3 1760 0
	ldr	r3, [sp, #4]
	cmp	r3, #0
	bne	.L485
	.loc 3 1762 0
	movs	r3, #5
	b	.L491
.L485:
	.loc 3 1765 0
	movs	r2, #10
	add	r2, r2, sp
	ldr	r3, [sp, #4]
	movs	r1, r2
	movs	r0, r3
	bl	record_find_by_desc
	subs	r3, r0, #0
	beq	.L487
	.loc 3 1768 0
	movs	r3, #10
	add	r3, r3, sp
	ldrh	r3, [r3]
	ldr	r2, .L492
	lsls	r3, r3, #4
	adds	r3, r2, r3
	adds	r3, r3, #12
	ldrh	r3, [r3]
	cmp	r3, #0
	beq	.L488
	.loc 3 1768 0 is_stmt 0 discriminator 1
	ldr	r3, [sp, #4]
	ldrb	r3, [r3, #10]
	cmp	r3, #0
	beq	.L488
	.loc 3 1771 0 is_stmt 1
	movs	r3, #10
	add	r3, r3, sp
	ldrh	r3, [r3]
	ldr	r1, .L492
	lsls	r2, r3, #4
	adds	r2, r1, r2
	adds	r2, r2, #12
	ldrh	r2, [r2]
	subs	r2, r2, #1
	uxth	r1, r2
	ldr	r2, .L492
	lsls	r3, r3, #4
	adds	r3, r2, r3
	adds	r3, r3, #12
	adds	r2, r1, #0
	strh	r2, [r3]
	.loc 3 1772 0
	ldr	r3, [sp, #4]
	movs	r2, #0
	strb	r2, [r3, #10]
	.loc 3 1774 0
	movs	r3, #0
	str	r3, [sp, #12]
	b	.L490
.L488:
	.loc 3 1778 0
	movs	r3, #6
	str	r3, [sp, #12]
	b	.L490
.L487:
	.loc 3 1784 0
	movs	r3, #10
	str	r3, [sp, #12]
.L490:
	.loc 3 1787 0
	ldr	r3, [sp, #12]
.L491:
	.loc 3 1788 0 discriminator 1
	movs	r0, r3
	add	sp, sp, #20
	@ sp needed
	pop	{pc}
.L493:
	.align	2
.L492:
	.word	m_pages
.LFE170:
	.size	fds_record_close, .-fds_record_close
	.section	.text.fds_reserve,"ax",%progbits
	.align	1
	.global	fds_reserve
	.syntax unified
	.code	16
	.thumb_func
	.fpu softvfp
	.type	fds_reserve, %function
fds_reserve:
.LFB171:
	.loc 3 1792 0
	@ args = 0, pretend = 0, frame = 16
	@ frame_needed = 0, uses_anonymous_args = 0
	push	{lr}
.LCFI93:
	sub	sp, sp, #20
.LCFI94:
	str	r0, [sp, #4]
	movs	r2, r1
	mov	r3, sp
	adds	r3, r3, #2
	strh	r2, [r3]
	.loc 3 1796 0
	movs	r0, #2
	bl	flag_is_set
	movs	r3, r0
	movs	r2, r3
	movs	r3, #1
	eors	r3, r2
	uxtb	r3, r3
	cmp	r3, #0
	beq	.L495
	.loc 3 1798 0
	movs	r3, #2
	b	.L499
.L495:
	.loc 3 1801 0
	ldr	r3, [sp, #4]
	cmp	r3, #0
	bne	.L497
	.loc 3 1803 0
	movs	r3, #5
	b	.L499
.L497:
	.loc 3 1806 0
	movs	r2, #10
	add	r2, r2, sp
	mov	r3, sp
	adds	r3, r3, #2
	ldrh	r3, [r3]
	movs	r1, r2
	movs	r0, r3
	bl	write_space_reserve
	movs	r3, r0
	str	r3, [sp, #12]
	.loc 3 1808 0
	ldr	r3, [sp, #12]
	cmp	r3, #0
	bne	.L498
	.loc 3 1810 0
	movs	r3, #10
	add	r3, r3, sp
	ldrh	r2, [r3]
	ldr	r3, [sp, #4]
	strh	r2, [r3]
	.loc 3 1811 0
	ldr	r3, [sp, #4]
	mov	r2, sp
	adds	r2, r2, #2
	ldrh	r2, [r2]
	strh	r2, [r3, #2]
.L498:
	.loc 3 1814 0
	ldr	r3, [sp, #12]
.L499:
	.loc 3 1815 0 discriminator 1
	movs	r0, r3
	add	sp, sp, #20
	@ sp needed
	pop	{pc}
.LFE171:
	.size	fds_reserve, .-fds_reserve
	.section	.text.fds_reserve_cancel,"ax",%progbits
	.align	1
	.global	fds_reserve_cancel
	.syntax unified
	.code	16
	.thumb_func
	.fpu softvfp
	.type	fds_reserve_cancel, %function
fds_reserve_cancel:
.LFB172:
	.loc 3 1819 0
	@ args = 0, pretend = 0, frame = 16
	@ frame_needed = 0, uses_anonymous_args = 0
	push	{lr}
.LCFI95:
	sub	sp, sp, #20
.LCFI96:
	str	r0, [sp, #4]
	.loc 3 1822 0
	movs	r0, #2
	bl	flag_is_set
	movs	r3, r0
	movs	r2, r3
	movs	r3, #1
	eors	r3, r2
	uxtb	r3, r3
	cmp	r3, #0
	beq	.L501
	.loc 3 1824 0
	movs	r3, #2
	b	.L502
.L501:
	.loc 3 1827 0
	ldr	r3, [sp, #4]
	cmp	r3, #0
	bne	.L503
	.loc 3 1829 0
	movs	r3, #5
	b	.L502
.L503:
	.loc 3 1832 0
	ldr	r3, [sp, #4]
	ldrh	r3, [r3]
	cmp	r3, #2
	bls	.L504
	.loc 3 1835 0
	movs	r3, #4
	b	.L502
.L504:
	.loc 3 1838 0
	ldr	r3, [sp, #4]
	ldrh	r3, [r3]
	lsls	r2, r3, #4
	ldr	r3, .L507
	adds	r3, r2, r3
	str	r3, [sp, #8]
	.loc 3 1841 0
	ldr	r3, [sp, #8]
	ldrh	r3, [r3, #10]
	movs	r2, r3
	ldr	r3, [sp, #4]
	ldrh	r3, [r3, #2]
	adds	r3, r3, #3
	subs	r3, r2, r3
	bmi	.L505
	.loc 3 1844 0
	ldr	r3, [sp, #4]
	ldrh	r2, [r3, #2]
	ldr	r3, [sp, #4]
	ldrh	r3, [r3]
	movs	r1, r3
	movs	r0, r2
	bl	write_space_free
	.loc 3 1847 0
	ldr	r3, [sp, #4]
	movs	r2, #0
	strh	r2, [r3]
	.loc 3 1848 0
	ldr	r3, [sp, #4]
	movs	r2, #0
	strh	r2, [r3, #2]
	.loc 3 1849 0
	movs	r3, #0
	str	r3, [sp, #12]
	b	.L506
.L505:
	.loc 3 1855 0
	movs	r3, #4
	str	r3, [sp, #12]
.L506:
	.loc 3 1859 0
	ldr	r3, [sp, #12]
.L502:
	.loc 3 1860 0
	movs	r0, r3
	add	sp, sp, #20
	@ sp needed
	pop	{pc}
.L508:
	.align	2
.L507:
	.word	m_pages
.LFE172:
	.size	fds_reserve_cancel, .-fds_reserve_cancel
	.section	.text.fds_record_write,"ax",%progbits
	.align	1
	.global	fds_record_write
	.syntax unified
	.code	16
	.thumb_func
	.fpu softvfp
	.type	fds_record_write, %function
fds_record_write:
.LFB173:
	.loc 3 1865 0
	@ args = 0, pretend = 0, frame = 8
	@ frame_needed = 0, uses_anonymous_args = 0
	push	{lr}
.LCFI97:
	sub	sp, sp, #12
.LCFI98:
	str	r0, [sp, #4]
	str	r1, [sp]
	.loc 3 1866 0
	ldr	r1, [sp]
	ldr	r0, [sp, #4]
	movs	r3, #2
	movs	r2, #0
	bl	write_enqueue
	movs	r3, r0
	.loc 3 1867 0
	movs	r0, r3
	add	sp, sp, #12
	@ sp needed
	pop	{pc}
.LFE173:
	.size	fds_record_write, .-fds_record_write
	.section	.text.fds_record_write_reserved,"ax",%progbits
	.align	1
	.global	fds_record_write_reserved
	.syntax unified
	.code	16
	.thumb_func
	.fpu softvfp
	.type	fds_record_write_reserved, %function
fds_record_write_reserved:
.LFB174:
	.loc 3 1873 0
	@ args = 0, pretend = 0, frame = 16
	@ frame_needed = 0, uses_anonymous_args = 0
	push	{lr}
.LCFI99:
	sub	sp, sp, #20
.LCFI100:
	str	r0, [sp, #12]
	str	r1, [sp, #8]
	str	r2, [sp, #4]
	.loc 3 1875 0
	ldr	r3, [sp, #4]
	cmp	r3, #0
	bne	.L512
	.loc 3 1877 0
	movs	r3, #5
	b	.L513
.L512:
	.loc 3 1880 0
	ldr	r2, [sp, #4]
	ldr	r1, [sp, #8]
	ldr	r0, [sp, #12]
	movs	r3, #2
	bl	write_enqueue
	movs	r3, r0
.L513:
	.loc 3 1881 0
	movs	r0, r3
	add	sp, sp, #20
	@ sp needed
	pop	{pc}
.LFE174:
	.size	fds_record_write_reserved, .-fds_record_write_reserved
	.section	.text.fds_record_update,"ax",%progbits
	.align	1
	.global	fds_record_update
	.syntax unified
	.code	16
	.thumb_func
	.fpu softvfp
	.type	fds_record_update, %function
fds_record_update:
.LFB175:
	.loc 3 1886 0
	@ args = 0, pretend = 0, frame = 8
	@ frame_needed = 0, uses_anonymous_args = 0
	push	{lr}
.LCFI101:
	sub	sp, sp, #12
.LCFI102:
	str	r0, [sp, #4]
	str	r1, [sp]
	.loc 3 1888 0
	ldr	r3, [sp, #4]
	cmp	r3, #0
	bne	.L515
	.loc 3 1890 0
	movs	r3, #5
	b	.L516
.L515:
	.loc 3 1893 0
	ldr	r1, [sp]
	ldr	r0, [sp, #4]
	movs	r3, #3
	movs	r2, #0
	bl	write_enqueue
	movs	r3, r0
.L516:
	.loc 3 1894 0
	movs	r0, r3
	add	sp, sp, #12
	@ sp needed
	pop	{pc}
.LFE175:
	.size	fds_record_update, .-fds_record_update
	.section	.text.fds_record_delete,"ax",%progbits
	.align	1
	.global	fds_record_delete
	.syntax unified
	.code	16
	.thumb_func
	.fpu softvfp
	.type	fds_record_delete, %function
fds_record_delete:
.LFB176:
	.loc 3 1898 0
	@ args = 0, pretend = 0, frame = 40
	@ frame_needed = 0, uses_anonymous_args = 0
	push	{lr}
.LCFI103:
	sub	sp, sp, #44
.LCFI104:
	str	r0, [sp, #4]
	.loc 3 1901 0
	movs	r0, #2
	bl	flag_is_set
	movs	r3, r0
	movs	r2, r3
	movs	r3, #1
	eors	r3, r2
	uxtb	r3, r3
	cmp	r3, #0
	beq	.L518
	.loc 3 1903 0
	movs	r3, #2
	b	.L522
.L518:
	.loc 3 1906 0
	ldr	r3, [sp, #4]
	cmp	r3, #0
	bne	.L520
	.loc 3 1908 0
	movs	r3, #5
	b	.L522
.L520:
	.loc 3 1911 0
	add	r3, sp, #12
	movs	r2, #4
	strb	r2, [r3]
	.loc 3 1912 0
	add	r3, sp, #12
	movs	r2, #0
	strb	r2, [r3, #4]
	.loc 3 1913 0
	ldr	r3, [sp, #4]
	ldr	r2, [r3]
	add	r3, sp, #12
	str	r2, [r3, #12]
	.loc 3 1915 0
	add	r3, sp, #12
	movs	r2, #0
	movs	r1, #0
	movs	r0, r3
	bl	op_enqueue
	subs	r3, r0, #0
	beq	.L521
	.loc 3 1917 0
	bl	queue_start
	.loc 3 1918 0
	movs	r3, #0
	b	.L522
.L521:
	.loc 3 1921 0
	movs	r3, #8
.L522:
	.loc 3 1922 0 discriminator 1
	movs	r0, r3
	add	sp, sp, #44
	@ sp needed
	pop	{pc}
.LFE176:
	.size	fds_record_delete, .-fds_record_delete
	.section	.text.fds_file_delete,"ax",%progbits
	.align	1
	.global	fds_file_delete
	.syntax unified
	.code	16
	.thumb_func
	.fpu softvfp
	.type	fds_file_delete, %function
fds_file_delete:
.LFB177:
	.loc 3 1926 0
	@ args = 0, pretend = 0, frame = 40
	@ frame_needed = 0, uses_anonymous_args = 0
	push	{lr}
.LCFI105:
	sub	sp, sp, #44
.LCFI106:
	movs	r2, r0
	mov	r3, sp
	adds	r3, r3, #6
	strh	r2, [r3]
	.loc 3 1929 0
	movs	r0, #2
	bl	flag_is_set
	movs	r3, r0
	movs	r2, r3
	movs	r3, #1
	eors	r3, r2
	uxtb	r3, r3
	cmp	r3, #0
	beq	.L524
	.loc 3 1931 0
	movs	r3, #2
	b	.L528
.L524:
	.loc 3 1934 0
	mov	r3, sp
	adds	r3, r3, #6
	ldrh	r3, [r3]
	ldr	r2, .L529
	cmp	r3, r2
	bne	.L526
	.loc 3 1936 0
	movs	r3, #4
	b	.L528
.L526:
	.loc 3 1939 0
	add	r3, sp, #12
	movs	r2, #5
	strb	r2, [r3]
	.loc 3 1940 0
	add	r3, sp, #12
	movs	r2, #1
	strb	r2, [r3, #4]
	.loc 3 1941 0
	add	r3, sp, #12
	mov	r2, sp
	adds	r2, r2, #6
	ldrh	r2, [r2]
	strh	r2, [r3, #6]
	.loc 3 1943 0
	add	r3, sp, #12
	movs	r2, #0
	movs	r1, #0
	movs	r0, r3
	bl	op_enqueue
	subs	r3, r0, #0
	beq	.L527
	.loc 3 1945 0
	bl	queue_start
	.loc 3 1946 0
	movs	r3, #0
	b	.L528
.L527:
	.loc 3 1949 0
	movs	r3, #8
.L528:
	.loc 3 1950 0 discriminator 1
	movs	r0, r3
	add	sp, sp, #44
	@ sp needed
	pop	{pc}
.L530:
	.align	2
.L529:
	.word	65535
.LFE177:
	.size	fds_file_delete, .-fds_file_delete
	.section	.text.fds_gc,"ax",%progbits
	.align	1
	.global	fds_gc
	.syntax unified
	.code	16
	.thumb_func
	.fpu softvfp
	.type	fds_gc, %function
fds_gc:
.LFB178:
	.loc 3 1954 0
	@ args = 0, pretend = 0, frame = 32
	@ frame_needed = 0, uses_anonymous_args = 0
	push	{lr}
.LCFI107:
	sub	sp, sp, #36
.LCFI108:
	.loc 3 1957 0
	movs	r0, #2
	bl	flag_is_set
	movs	r3, r0
	movs	r2, r3
	movs	r3, #1
	eors	r3, r2
	uxtb	r3, r3
	cmp	r3, #0
	beq	.L532
	.loc 3 1959 0
	movs	r3, #2
	b	.L536
.L532:
	.loc 3 1962 0
	add	r3, sp, #4
	movs	r2, #6
	strb	r2, [r3]
	.loc 3 1964 0
	add	r3, sp, #4
	movs	r2, #0
	movs	r1, #0
	movs	r0, r3
	bl	op_enqueue
	subs	r3, r0, #0
	beq	.L534
	.loc 3 1966 0
	ldr	r3, .L537
	ldrb	r3, [r3]
	cmp	r3, #0
	beq	.L535
	.loc 3 1969 0
	ldr	r3, .L537
	movs	r2, #1
	strb	r2, [r3, #12]
.L535:
	.loc 3 1972 0
	bl	queue_start
	.loc 3 1973 0
	movs	r3, #0
	b	.L536
.L534:
	.loc 3 1976 0
	movs	r3, #8
.L536:
	.loc 3 1977 0 discriminator 1
	movs	r0, r3
	add	sp, sp, #36
	@ sp needed
	pop	{pc}
.L538:
	.align	2
.L537:
	.word	m_gc
.LFE178:
	.size	fds_gc, .-fds_gc
	.section	.text.fds_record_iterate,"ax",%progbits
	.align	1
	.global	fds_record_iterate
	.syntax unified
	.code	16
	.thumb_func
	.fpu softvfp
	.type	fds_record_iterate, %function
fds_record_iterate:
.LFB179:
	.loc 3 1982 0
	@ args = 0, pretend = 0, frame = 8
	@ frame_needed = 0, uses_anonymous_args = 0
	push	{lr}
.LCFI109:
	sub	sp, sp, #12
.LCFI110:
	str	r0, [sp, #4]
	str	r1, [sp]
	.loc 3 1983 0
	ldr	r3, [sp]
	ldr	r2, [sp, #4]
	movs	r1, #0
	movs	r0, #0
	bl	record_find
	movs	r3, r0
	.loc 3 1984 0
	movs	r0, r3
	add	sp, sp, #12
	@ sp needed
	pop	{pc}
.LFE179:
	.size	fds_record_iterate, .-fds_record_iterate
	.section	.text.fds_record_find,"ax",%progbits
	.align	1
	.global	fds_record_find
	.syntax unified
	.code	16
	.thumb_func
	.fpu softvfp
	.type	fds_record_find, %function
fds_record_find:
.LFB180:
	.loc 3 1991 0
	@ args = 0, pretend = 0, frame = 16
	@ frame_needed = 0, uses_anonymous_args = 0
	push	{lr}
.LCFI111:
	sub	sp, sp, #20
.LCFI112:
	str	r2, [sp, #8]
	str	r3, [sp, #4]
	movs	r3, #14
	add	r3, r3, sp
	adds	r2, r0, #0
	strh	r2, [r3]
	add	r3, sp, #12
	adds	r2, r1, #0
	strh	r2, [r3]
	.loc 3 1992 0
	ldr	r3, [sp, #4]
	ldr	r2, [sp, #8]
	add	r1, sp, #12
	movs	r0, #14
	add	r0, r0, sp
	bl	record_find
	movs	r3, r0
	.loc 3 1993 0
	movs	r0, r3
	add	sp, sp, #20
	@ sp needed
	pop	{pc}
.LFE180:
	.size	fds_record_find, .-fds_record_find
	.section	.text.fds_record_find_by_key,"ax",%progbits
	.align	1
	.global	fds_record_find_by_key
	.syntax unified
	.code	16
	.thumb_func
	.fpu softvfp
	.type	fds_record_find_by_key, %function
fds_record_find_by_key:
.LFB181:
	.loc 3 1999 0
	@ args = 0, pretend = 0, frame = 16
	@ frame_needed = 0, uses_anonymous_args = 0
	push	{lr}
.LCFI113:
	sub	sp, sp, #20
.LCFI114:
	str	r1, [sp, #8]
	str	r2, [sp, #4]
	movs	r3, #14
	add	r3, r3, sp
	adds	r2, r0, #0
	strh	r2, [r3]
	.loc 3 2000 0
	ldr	r3, [sp, #4]
	ldr	r2, [sp, #8]
	movs	r1, #14
	add	r1, r1, sp
	movs	r0, #0
	bl	record_find
	movs	r3, r0
	.loc 3 2001 0
	movs	r0, r3
	add	sp, sp, #20
	@ sp needed
	pop	{pc}
.LFE181:
	.size	fds_record_find_by_key, .-fds_record_find_by_key
	.section	.text.fds_record_find_in_file,"ax",%progbits
	.align	1
	.global	fds_record_find_in_file
	.syntax unified
	.code	16
	.thumb_func
	.fpu softvfp
	.type	fds_record_find_in_file, %function
fds_record_find_in_file:
.LFB182:
	.loc 3 2007 0
	@ args = 0, pretend = 0, frame = 16
	@ frame_needed = 0, uses_anonymous_args = 0
	push	{lr}
.LCFI115:
	sub	sp, sp, #20
.LCFI116:
	str	r1, [sp, #8]
	str	r2, [sp, #4]
	movs	r3, #14
	add	r3, r3, sp
	adds	r2, r0, #0
	strh	r2, [r3]
	.loc 3 2008 0
	ldr	r3, [sp, #4]
	ldr	r2, [sp, #8]
	movs	r0, #14
	add	r0, r0, sp
	movs	r1, #0
	bl	record_find
	movs	r3, r0
	.loc 3 2009 0
	movs	r0, r3
	add	sp, sp, #20
	@ sp needed
	pop	{pc}
.LFE182:
	.size	fds_record_find_in_file, .-fds_record_find_in_file
	.section	.text.fds_descriptor_from_rec_id,"ax",%progbits
	.align	1
	.global	fds_descriptor_from_rec_id
	.syntax unified
	.code	16
	.thumb_func
	.fpu softvfp
	.type	fds_descriptor_from_rec_id, %function
fds_descriptor_from_rec_id:
.LFB183:
	.loc 3 2014 0
	@ args = 0, pretend = 0, frame = 8
	@ frame_needed = 0, uses_anonymous_args = 0
	push	{lr}
.LCFI117:
	sub	sp, sp, #12
.LCFI118:
	str	r0, [sp, #4]
	str	r1, [sp]
	.loc 3 2015 0
	ldr	r3, [sp, #4]
	cmp	r3, #0
	bne	.L548
	.loc 3 2017 0
	movs	r3, #5
	b	.L549
.L548:
	.loc 3 2021 0
	ldr	r3, [sp, #4]
	movs	r2, #12
	movs	r1, #0
	movs	r0, r3
	bl	memset
	.loc 3 2022 0
	ldr	r3, [sp, #4]
	ldr	r2, [sp]
	str	r2, [r3]
	.loc 3 2024 0
	movs	r3, #0
.L549:
	.loc 3 2025 0
	movs	r0, r3
	add	sp, sp, #12
	@ sp needed
	pop	{pc}
.LFE183:
	.size	fds_descriptor_from_rec_id, .-fds_descriptor_from_rec_id
	.section	.text.fds_record_id_from_desc,"ax",%progbits
	.align	1
	.global	fds_record_id_from_desc
	.syntax unified
	.code	16
	.thumb_func
	.fpu softvfp
	.type	fds_record_id_from_desc, %function
fds_record_id_from_desc:
.LFB184:
	.loc 3 2030 0
	@ args = 0, pretend = 0, frame = 8
	@ frame_needed = 0, uses_anonymous_args = 0
	@ link register save eliminated.
	sub	sp, sp, #8
.LCFI119:
	str	r0, [sp, #4]
	str	r1, [sp]
	.loc 3 2031 0
	ldr	r3, [sp, #4]
	cmp	r3, #0
	beq	.L551
	.loc 3 2031 0 is_stmt 0 discriminator 1
	ldr	r3, [sp]
	cmp	r3, #0
	bne	.L552
.L551:
	.loc 3 2033 0 is_stmt 1
	movs	r3, #5
	b	.L553
.L552:
	.loc 3 2036 0
	ldr	r3, [sp, #4]
	ldr	r2, [r3]
	ldr	r3, [sp]
	str	r2, [r3]
	.loc 3 2038 0
	movs	r3, #0
.L553:
	.loc 3 2039 0
	movs	r0, r3
	add	sp, sp, #8
	@ sp needed
	bx	lr
.LFE184:
	.size	fds_record_id_from_desc, .-fds_record_id_from_desc
	.section	.text.fds_stat,"ax",%progbits
	.align	1
	.global	fds_stat
	.syntax unified
	.code	16
	.thumb_func
	.fpu softvfp
	.type	fds_stat, %function
fds_stat:
.LFB185:
	.loc 3 2043 0
	@ args = 0, pretend = 0, frame = 24
	@ frame_needed = 0, uses_anonymous_args = 0
	push	{lr}
.LCFI120:
	sub	sp, sp, #28
.LCFI121:
	str	r0, [sp, #4]
	.loc 3 2044 0
	add	r3, sp, #20
	movs	r2, #128
	lsls	r2, r2, #1
	strh	r2, [r3]
	.loc 3 2046 0
	movs	r3, #18
	add	r3, r3, sp
	movs	r2, #0
	strh	r2, [r3]
	.loc 3 2048 0
	movs	r0, #2
	bl	flag_is_set
	movs	r3, r0
	movs	r2, r3
	movs	r3, #1
	eors	r3, r2
	uxtb	r3, r3
	cmp	r3, #0
	beq	.L555
	.loc 3 2050 0
	movs	r3, #2
	b	.L556
.L555:
	.loc 3 2053 0
	ldr	r3, [sp, #4]
	cmp	r3, #0
	bne	.L557
	.loc 3 2055 0
	movs	r3, #5
	b	.L556
.L557:
	.loc 3 2058 0
	ldr	r3, [sp, #4]
	movs	r2, #14
	movs	r1, #0
	movs	r0, r3
	bl	memset
.LBB25:
	.loc 3 2060 0
	movs	r3, #22
	add	r3, r3, sp
	movs	r2, #0
	strh	r2, [r3]
	b	.L558
.L562:
.LBB26:
	.loc 3 2062 0
	movs	r3, #0
	str	r3, [sp, #12]
	.loc 3 2063 0
	movs	r3, #22
	add	r3, r3, sp
	ldrh	r3, [r3]
	ldr	r2, .L563
	lsls	r3, r3, #4
	adds	r3, r2, r3
	adds	r3, r3, #8
	ldrh	r1, [r3]
	movs	r3, #22
	add	r3, r3, sp
	ldrh	r3, [r3]
	ldr	r2, .L563
	lsls	r3, r3, #4
	adds	r3, r2, r3
	adds	r3, r3, #10
	ldrh	r2, [r3]
	add	r3, sp, #16
	adds	r2, r1, r2
	strh	r2, [r3]
	.loc 3 2065 0
	ldr	r3, [sp, #4]
	ldrh	r2, [r3]
	movs	r3, #22
	add	r3, r3, sp
	ldrh	r3, [r3]
	ldr	r1, .L563
	lsls	r3, r3, #4
	adds	r3, r1, r3
	adds	r3, r3, #12
	ldrh	r3, [r3]
	adds	r3, r2, r3
	uxth	r2, r3
	ldr	r3, [sp, #4]
	strh	r2, [r3]
	.loc 3 2066 0
	ldr	r3, [sp, #4]
	ldrh	r2, [r3, #6]
	movs	r3, #22
	add	r3, r3, sp
	ldrh	r3, [r3]
	ldr	r1, .L563
	lsls	r3, r3, #4
	adds	r3, r1, r3
	adds	r3, r3, #10
	ldrh	r3, [r3]
	adds	r3, r2, r3
	uxth	r2, r3
	ldr	r3, [sp, #4]
	strh	r2, [r3, #6]
	.loc 3 2067 0
	ldr	r3, [sp, #4]
	ldrh	r2, [r3, #8]
	add	r3, sp, #16
	ldrh	r3, [r3]
	adds	r3, r2, r3
	uxth	r2, r3
	ldr	r3, [sp, #4]
	strh	r2, [r3, #8]
	.loc 3 2068 0
	movs	r3, #18
	add	r3, r3, sp
	add	r1, sp, #20
	add	r2, sp, #16
	ldrh	r1, [r1]
	ldrh	r2, [r2]
	subs	r2, r1, r2
	strh	r2, [r3]
	.loc 3 2070 0
	ldr	r3, [sp, #4]
	ldrh	r3, [r3, #10]
	movs	r2, #18
	add	r2, r2, sp
	ldrh	r2, [r2]
	cmp	r2, r3
	bls	.L560
	.loc 3 2072 0
	ldr	r3, [sp, #4]
	movs	r2, #18
	add	r2, r2, sp
	ldrh	r2, [r2]
	strh	r2, [r3, #10]
	.loc 3 2075 0
	b	.L560
.L561:
	.loc 3 2077 0
	ldr	r3, [sp, #4]
	ldrh	r3, [r3, #2]
	adds	r3, r3, #1
	uxth	r2, r3
	ldr	r3, [sp, #4]
	strh	r2, [r3, #2]
.L560:
	.loc 3 2075 0
	add	r2, sp, #12
	movs	r3, #22
	add	r3, r3, sp
	ldrh	r3, [r3]
	movs	r1, r2
	movs	r0, r3
	bl	record_find_next
	subs	r3, r0, #0
	bne	.L561
	.loc 3 2080 0 discriminator 2
	ldr	r3, [sp, #4]
	adds	r1, r3, #4
	ldr	r3, [sp, #4]
	adds	r3, r3, #12
	movs	r2, r3
	movs	r3, #22
	add	r3, r3, sp
	ldrh	r3, [r3]
	movs	r0, r3
	bl	dirty_records_stat
.LBE26:
	.loc 3 2060 0 discriminator 2
	movs	r3, #22
	add	r3, r3, sp
	ldrh	r2, [r3]
	movs	r3, #22
	add	r3, r3, sp
	adds	r2, r2, #1
	strh	r2, [r3]
.L558:
	.loc 3 2060 0 is_stmt 0 discriminator 1
	movs	r3, #22
	add	r3, r3, sp
	ldrh	r3, [r3]
	cmp	r3, #1
	bhi	.LCB6442
	b	.L562	@long jump
.LCB6442:
.LBE25:
	.loc 3 2083 0 is_stmt 1
	movs	r3, #0
.L556:
	.loc 3 2084 0
	movs	r0, r3
	add	sp, sp, #28
	@ sp needed
	pop	{pc}
.L564:
	.align	2
.L563:
	.word	m_pages
.LFE185:
	.size	fds_stat, .-fds_stat
	.section	.rodata.page_tag_swap.5919,"a",%progbits
	.align	2
	.type	page_tag_swap.5919, %object
	.size	page_tag_swap.5919, 8
page_tag_swap.5919:
	.word	-559038242
	.word	-249691649
	.section	.rodata.page_tag_data.5923,"a",%progbits
	.align	2
	.type	page_tag_data.5923, %object
	.size	page_tag_data.5923, 8
page_tag_data.5923:
	.word	-559038242
	.word	-249691650
	.section	.bss.tok.6058,"aw",%nobits
	.align	2
	.type	tok.6058, %object
	.size	tok.6058, 8
tok.6058:
	.space	8
	.section	.bss.desc.6152,"aw",%nobits
	.align	2
	.type	desc.6152, %object
	.size	desc.6152, 12
desc.6152:
	.space	12
	.section	.bss.page.6153,"aw",%nobits
	.align	1
	.type	page.6153, %object
	.size	page.6153, 2
page.6153:
	.space	2
	.section	.debug_frame,"",%progbits
.Lframe0:
	.4byte	.LECIE0-.LSCIE0
.LSCIE0:
	.4byte	0xffffffff
	.byte	0x3
	.ascii	"\000"
	.uleb128 0x1
	.sleb128 -4
	.uleb128 0xe
	.byte	0xc
	.uleb128 0xd
	.uleb128 0
	.align	2
.LECIE0:
.LSFDE0:
	.4byte	.LEFDE0-.LASFDE0
.LASFDE0:
	.4byte	.Lframe0
	.4byte	.LFB49
	.4byte	.LFE49-.LFB49
	.byte	0x4
	.4byte	.LCFI0-.LFB49
	.byte	0xe
	.uleb128 0x8
	.align	2
.LEFDE0:
.LSFDE2:
	.4byte	.LEFDE2-.LASFDE2
.LASFDE2:
	.4byte	.Lframe0
	.4byte	.LFB51
	.4byte	.LFE51-.LFB51
	.align	2
.LEFDE2:
.LSFDE4:
	.4byte	.LEFDE4-.LASFDE4
.LASFDE4:
	.4byte	.Lframe0
	.4byte	.LFB52
	.4byte	.LFE52-.LFB52
	.align	2
.LEFDE4:
.LSFDE6:
	.4byte	.LEFDE6-.LASFDE6
.LASFDE6:
	.4byte	.Lframe0
	.4byte	.LFB53
	.4byte	.LFE53-.LFB53
	.align	2
.LEFDE6:
.LSFDE8:
	.4byte	.LEFDE8-.LASFDE8
.LASFDE8:
	.4byte	.Lframe0
	.4byte	.LFB54
	.4byte	.LFE54-.LFB54
	.align	2
.LEFDE8:
.LSFDE10:
	.4byte	.LEFDE10-.LASFDE10
.LASFDE10:
	.4byte	.Lframe0
	.4byte	.LFB55
	.4byte	.LFE55-.LFB55
	.align	2
.LEFDE10:
.LSFDE12:
	.4byte	.LEFDE12-.LASFDE12
.LASFDE12:
	.4byte	.Lframe0
	.4byte	.LFB56
	.4byte	.LFE56-.LFB56
	.align	2
.LEFDE12:
.LSFDE14:
	.4byte	.LEFDE14-.LASFDE14
.LASFDE14:
	.4byte	.Lframe0
	.4byte	.LFB57
	.4byte	.LFE57-.LFB57
	.align	2
.LEFDE14:
.LSFDE16:
	.4byte	.LEFDE16-.LASFDE16
.LASFDE16:
	.4byte	.Lframe0
	.4byte	.LFB58
	.4byte	.LFE58-.LFB58
	.align	2
.LEFDE16:
.LSFDE18:
	.4byte	.LEFDE18-.LASFDE18
.LASFDE18:
	.4byte	.Lframe0
	.4byte	.LFB59
	.4byte	.LFE59-.LFB59
	.align	2
.LEFDE18:
.LSFDE20:
	.4byte	.LEFDE20-.LASFDE20
.LASFDE20:
	.4byte	.Lframe0
	.4byte	.LFB60
	.4byte	.LFE60-.LFB60
	.align	2
.LEFDE20:
.LSFDE22:
	.4byte	.LEFDE22-.LASFDE22
.LASFDE22:
	.4byte	.Lframe0
	.4byte	.LFB61
	.4byte	.LFE61-.LFB61
	.align	2
.LEFDE22:
.LSFDE24:
	.4byte	.LEFDE24-.LASFDE24
.LASFDE24:
	.4byte	.Lframe0
	.4byte	.LFB62
	.4byte	.LFE62-.LFB62
	.align	2
.LEFDE24:
.LSFDE26:
	.4byte	.LEFDE26-.LASFDE26
.LASFDE26:
	.4byte	.Lframe0
	.4byte	.LFB63
	.4byte	.LFE63-.LFB63
	.align	2
.LEFDE26:
.LSFDE28:
	.4byte	.LEFDE28-.LASFDE28
.LASFDE28:
	.4byte	.Lframe0
	.4byte	.LFB64
	.4byte	.LFE64-.LFB64
	.align	2
.LEFDE28:
.LSFDE30:
	.4byte	.LEFDE30-.LASFDE30
.LASFDE30:
	.4byte	.Lframe0
	.4byte	.LFB65
	.4byte	.LFE65-.LFB65
	.align	2
.LEFDE30:
.LSFDE32:
	.4byte	.LEFDE32-.LASFDE32
.LASFDE32:
	.4byte	.Lframe0
	.4byte	.LFB66
	.4byte	.LFE66-.LFB66
	.align	2
.LEFDE32:
.LSFDE34:
	.4byte	.LEFDE34-.LASFDE34
.LASFDE34:
	.4byte	.Lframe0
	.4byte	.LFB67
	.4byte	.LFE67-.LFB67
	.align	2
.LEFDE34:
.LSFDE36:
	.4byte	.LEFDE36-.LASFDE36
.LASFDE36:
	.4byte	.Lframe0
	.4byte	.LFB68
	.4byte	.LFE68-.LFB68
	.align	2
.LEFDE36:
.LSFDE38:
	.4byte	.LEFDE38-.LASFDE38
.LASFDE38:
	.4byte	.Lframe0
	.4byte	.LFB69
	.4byte	.LFE69-.LFB69
	.align	2
.LEFDE38:
.LSFDE40:
	.4byte	.LEFDE40-.LASFDE40
.LASFDE40:
	.4byte	.Lframe0
	.4byte	.LFB70
	.4byte	.LFE70-.LFB70
	.align	2
.LEFDE40:
.LSFDE42:
	.4byte	.LEFDE42-.LASFDE42
.LASFDE42:
	.4byte	.Lframe0
	.4byte	.LFB71
	.4byte	.LFE71-.LFB71
	.align	2
.LEFDE42:
.LSFDE44:
	.4byte	.LEFDE44-.LASFDE44
.LASFDE44:
	.4byte	.Lframe0
	.4byte	.LFB72
	.4byte	.LFE72-.LFB72
	.align	2
.LEFDE44:
.LSFDE46:
	.4byte	.LEFDE46-.LASFDE46
.LASFDE46:
	.4byte	.Lframe0
	.4byte	.LFB73
	.4byte	.LFE73-.LFB73
	.align	2
.LEFDE46:
.LSFDE48:
	.4byte	.LEFDE48-.LASFDE48
.LASFDE48:
	.4byte	.Lframe0
	.4byte	.LFB74
	.4byte	.LFE74-.LFB74
	.align	2
.LEFDE48:
.LSFDE50:
	.4byte	.LEFDE50-.LASFDE50
.LASFDE50:
	.4byte	.Lframe0
	.4byte	.LFB75
	.4byte	.LFE75-.LFB75
	.align	2
.LEFDE50:
.LSFDE52:
	.4byte	.LEFDE52-.LASFDE52
.LASFDE52:
	.4byte	.Lframe0
	.4byte	.LFB76
	.4byte	.LFE76-.LFB76
	.align	2
.LEFDE52:
.LSFDE54:
	.4byte	.LEFDE54-.LASFDE54
.LASFDE54:
	.4byte	.Lframe0
	.4byte	.LFB77
	.4byte	.LFE77-.LFB77
	.align	2
.LEFDE54:
.LSFDE56:
	.4byte	.LEFDE56-.LASFDE56
.LASFDE56:
	.4byte	.Lframe0
	.4byte	.LFB78
	.4byte	.LFE78-.LFB78
	.align	2
.LEFDE56:
.LSFDE58:
	.4byte	.LEFDE58-.LASFDE58
.LASFDE58:
	.4byte	.Lframe0
	.4byte	.LFB79
	.4byte	.LFE79-.LFB79
	.align	2
.LEFDE58:
.LSFDE60:
	.4byte	.LEFDE60-.LASFDE60
.LASFDE60:
	.4byte	.Lframe0
	.4byte	.LFB80
	.4byte	.LFE80-.LFB80
	.align	2
.LEFDE60:
.LSFDE62:
	.4byte	.LEFDE62-.LASFDE62
.LASFDE62:
	.4byte	.Lframe0
	.4byte	.LFB81
	.4byte	.LFE81-.LFB81
	.align	2
.LEFDE62:
.LSFDE64:
	.4byte	.LEFDE64-.LASFDE64
.LASFDE64:
	.4byte	.Lframe0
	.4byte	.LFB82
	.4byte	.LFE82-.LFB82
	.align	2
.LEFDE64:
.LSFDE66:
	.4byte	.LEFDE66-.LASFDE66
.LASFDE66:
	.4byte	.Lframe0
	.4byte	.LFB83
	.4byte	.LFE83-.LFB83
	.align	2
.LEFDE66:
.LSFDE68:
	.4byte	.LEFDE68-.LASFDE68
.LASFDE68:
	.4byte	.Lframe0
	.4byte	.LFB84
	.4byte	.LFE84-.LFB84
	.align	2
.LEFDE68:
.LSFDE70:
	.4byte	.LEFDE70-.LASFDE70
.LASFDE70:
	.4byte	.Lframe0
	.4byte	.LFB85
	.4byte	.LFE85-.LFB85
	.align	2
.LEFDE70:
.LSFDE72:
	.4byte	.LEFDE72-.LASFDE72
.LASFDE72:
	.4byte	.Lframe0
	.4byte	.LFB86
	.4byte	.LFE86-.LFB86
	.align	2
.LEFDE72:
.LSFDE74:
	.4byte	.LEFDE74-.LASFDE74
.LASFDE74:
	.4byte	.Lframe0
	.4byte	.LFB87
	.4byte	.LFE87-.LFB87
	.align	2
.LEFDE74:
.LSFDE76:
	.4byte	.LEFDE76-.LASFDE76
.LASFDE76:
	.4byte	.Lframe0
	.4byte	.LFB88
	.4byte	.LFE88-.LFB88
	.align	2
.LEFDE76:
.LSFDE78:
	.4byte	.LEFDE78-.LASFDE78
.LASFDE78:
	.4byte	.Lframe0
	.4byte	.LFB89
	.4byte	.LFE89-.LFB89
	.align	2
.LEFDE78:
.LSFDE80:
	.4byte	.LEFDE80-.LASFDE80
.LASFDE80:
	.4byte	.Lframe0
	.4byte	.LFB90
	.4byte	.LFE90-.LFB90
	.align	2
.LEFDE80:
.LSFDE82:
	.4byte	.LEFDE82-.LASFDE82
.LASFDE82:
	.4byte	.Lframe0
	.4byte	.LFB91
	.4byte	.LFE91-.LFB91
	.align	2
.LEFDE82:
.LSFDE84:
	.4byte	.LEFDE84-.LASFDE84
.LASFDE84:
	.4byte	.Lframe0
	.4byte	.LFB92
	.4byte	.LFE92-.LFB92
	.align	2
.LEFDE84:
.LSFDE86:
	.4byte	.LEFDE86-.LASFDE86
.LASFDE86:
	.4byte	.Lframe0
	.4byte	.LFB111
	.4byte	.LFE111-.LFB111
	.byte	0x4
	.4byte	.LCFI1-.LFB111
	.byte	0xe
	.uleb128 0x8
	.align	2
.LEFDE86:
.LSFDE88:
	.4byte	.LEFDE88-.LASFDE88
.LASFDE88:
	.4byte	.Lframe0
	.4byte	.LFB112
	.4byte	.LFE112-.LFB112
	.byte	0x4
	.4byte	.LCFI2-.LFB112
	.byte	0xe
	.uleb128 0x8
	.align	2
.LEFDE88:
.LSFDE90:
	.4byte	.LEFDE90-.LASFDE90
.LASFDE90:
	.4byte	.Lframe0
	.4byte	.LFB113
	.4byte	.LFE113-.LFB113
	.byte	0x4
	.4byte	.LCFI3-.LFB113
	.byte	0xe
	.uleb128 0x8
	.align	2
.LEFDE90:
.LSFDE92:
	.4byte	.LEFDE92-.LASFDE92
.LASFDE92:
	.4byte	.Lframe0
	.4byte	.LFB114
	.4byte	.LFE114-.LFB114
	.byte	0x4
	.4byte	.LCFI4-.LFB114
	.byte	0xe
	.uleb128 0x4
	.byte	0x8e
	.uleb128 0x1
	.byte	0x4
	.4byte	.LCFI5-.LCFI4
	.byte	0xe
	.uleb128 0x18
	.align	2
.LEFDE92:
.LSFDE94:
	.4byte	.LEFDE94-.LASFDE94
.LASFDE94:
	.4byte	.Lframe0
	.4byte	.LFB115
	.4byte	.LFE115-.LFB115
	.byte	0x4
	.4byte	.LCFI6-.LFB115
	.byte	0xe
	.uleb128 0x8
	.align	2
.LEFDE94:
.LSFDE96:
	.4byte	.LEFDE96-.LASFDE96
.LASFDE96:
	.4byte	.Lframe0
	.4byte	.LFB116
	.4byte	.LFE116-.LFB116
	.byte	0x4
	.4byte	.LCFI7-.LFB116
	.byte	0xe
	.uleb128 0x8
	.align	2
.LEFDE96:
.LSFDE98:
	.4byte	.LEFDE98-.LASFDE98
.LASFDE98:
	.4byte	.Lframe0
	.4byte	.LFB117
	.4byte	.LFE117-.LFB117
	.byte	0x4
	.4byte	.LCFI8-.LFB117
	.byte	0xe
	.uleb128 0x4
	.byte	0x8e
	.uleb128 0x1
	.byte	0x4
	.4byte	.LCFI9-.LCFI8
	.byte	0xe
	.uleb128 0x10
	.align	2
.LEFDE98:
.LSFDE100:
	.4byte	.LEFDE100-.LASFDE100
.LASFDE100:
	.4byte	.Lframe0
	.4byte	.LFB118
	.4byte	.LFE118-.LFB118
	.byte	0x4
	.4byte	.LCFI10-.LFB118
	.byte	0xe
	.uleb128 0x4
	.byte	0x8e
	.uleb128 0x1
	.byte	0x4
	.4byte	.LCFI11-.LCFI10
	.byte	0xe
	.uleb128 0x18
	.align	2
.LEFDE100:
.LSFDE102:
	.4byte	.LEFDE102-.LASFDE102
.LASFDE102:
	.4byte	.Lframe0
	.4byte	.LFB119
	.4byte	.LFE119-.LFB119
	.byte	0x4
	.4byte	.LCFI12-.LFB119
	.byte	0xe
	.uleb128 0x8
	.align	2
.LEFDE102:
.LSFDE104:
	.4byte	.LEFDE104-.LASFDE104
.LASFDE104:
	.4byte	.Lframe0
	.4byte	.LFB120
	.4byte	.LFE120-.LFB120
	.byte	0x4
	.4byte	.LCFI13-.LFB120
	.byte	0xe
	.uleb128 0x10
	.align	2
.LEFDE104:
.LSFDE106:
	.4byte	.LEFDE106-.LASFDE106
.LASFDE106:
	.4byte	.Lframe0
	.4byte	.LFB121
	.4byte	.LFE121-.LFB121
	.byte	0x4
	.4byte	.LCFI14-.LFB121
	.byte	0xe
	.uleb128 0x8
	.align	2
.LEFDE106:
.LSFDE108:
	.4byte	.LEFDE108-.LASFDE108
.LASFDE108:
	.4byte	.Lframe0
	.4byte	.LFB122
	.4byte	.LFE122-.LFB122
	.byte	0x4
	.4byte	.LCFI15-.LFB122
	.byte	0xe
	.uleb128 0x10
	.align	2
.LEFDE108:
.LSFDE110:
	.4byte	.LEFDE110-.LASFDE110
.LASFDE110:
	.4byte	.Lframe0
	.4byte	.LFB123
	.4byte	.LFE123-.LFB123
	.byte	0x4
	.4byte	.LCFI16-.LFB123
	.byte	0xe
	.uleb128 0x4
	.byte	0x8e
	.uleb128 0x1
	.byte	0x4
	.4byte	.LCFI17-.LCFI16
	.byte	0xe
	.uleb128 0x28
	.align	2
.LEFDE110:
.LSFDE112:
	.4byte	.LEFDE112-.LASFDE112
.LASFDE112:
	.4byte	.Lframe0
	.4byte	.LFB124
	.4byte	.LFE124-.LFB124
	.byte	0x4
	.4byte	.LCFI18-.LFB124
	.byte	0xe
	.uleb128 0x8
	.align	2
.LEFDE112:
.LSFDE114:
	.4byte	.LEFDE114-.LASFDE114
.LASFDE114:
	.4byte	.Lframe0
	.4byte	.LFB125
	.4byte	.LFE125-.LFB125
	.byte	0x4
	.4byte	.LCFI19-.LFB125
	.byte	0xe
	.uleb128 0x4
	.byte	0x8e
	.uleb128 0x1
	.byte	0x4
	.4byte	.LCFI20-.LCFI19
	.byte	0xe
	.uleb128 0x10
	.align	2
.LEFDE114:
.LSFDE116:
	.4byte	.LEFDE116-.LASFDE116
.LASFDE116:
	.4byte	.Lframe0
	.4byte	.LFB126
	.4byte	.LFE126-.LFB126
	.byte	0x4
	.4byte	.LCFI21-.LFB126
	.byte	0xe
	.uleb128 0x4
	.byte	0x8e
	.uleb128 0x1
	.byte	0x4
	.4byte	.LCFI22-.LCFI21
	.byte	0xe
	.uleb128 0x18
	.align	2
.LEFDE116:
.LSFDE118:
	.4byte	.LEFDE118-.LASFDE118
.LASFDE118:
	.4byte	.Lframe0
	.4byte	.LFB127
	.4byte	.LFE127-.LFB127
	.byte	0x4
	.4byte	.LCFI23-.LFB127
	.byte	0xe
	.uleb128 0x4
	.byte	0x8e
	.uleb128 0x1
	.byte	0x4
	.4byte	.LCFI24-.LCFI23
	.byte	0xe
	.uleb128 0x18
	.align	2
.LEFDE118:
.LSFDE120:
	.4byte	.LEFDE120-.LASFDE120
.LASFDE120:
	.4byte	.Lframe0
	.4byte	.LFB128
	.4byte	.LFE128-.LFB128
	.byte	0x4
	.4byte	.LCFI25-.LFB128
	.byte	0xe
	.uleb128 0x8
	.align	2
.LEFDE120:
.LSFDE122:
	.4byte	.LEFDE122-.LASFDE122
.LASFDE122:
	.4byte	.Lframe0
	.4byte	.LFB129
	.4byte	.LFE129-.LFB129
	.align	2
.LEFDE122:
.LSFDE124:
	.4byte	.LEFDE124-.LASFDE124
.LASFDE124:
	.4byte	.Lframe0
	.4byte	.LFB130
	.4byte	.LFE130-.LFB130
	.byte	0x4
	.4byte	.LCFI26-.LFB130
	.byte	0xe
	.uleb128 0x4
	.byte	0x8e
	.uleb128 0x1
	.byte	0x4
	.4byte	.LCFI27-.LCFI26
	.byte	0xe
	.uleb128 0x18
	.align	2
.LEFDE124:
.LSFDE126:
	.4byte	.LEFDE126-.LASFDE126
.LASFDE126:
	.4byte	.Lframe0
	.4byte	.LFB131
	.4byte	.LFE131-.LFB131
	.byte	0x4
	.4byte	.LCFI28-.LFB131
	.byte	0xe
	.uleb128 0x4
	.byte	0x8e
	.uleb128 0x1
	.byte	0x4
	.4byte	.LCFI29-.LCFI28
	.byte	0xe
	.uleb128 0x18
	.align	2
.LEFDE126:
.LSFDE128:
	.4byte	.LEFDE128-.LASFDE128
.LASFDE128:
	.4byte	.Lframe0
	.4byte	.LFB132
	.4byte	.LFE132-.LFB132
	.byte	0x4
	.4byte	.LCFI30-.LFB132
	.byte	0xe
	.uleb128 0x4
	.byte	0x8e
	.uleb128 0x1
	.byte	0x4
	.4byte	.LCFI31-.LCFI30
	.byte	0xe
	.uleb128 0x20
	.align	2
.LEFDE128:
.LSFDE130:
	.4byte	.LEFDE130-.LASFDE130
.LASFDE130:
	.4byte	.Lframe0
	.4byte	.LFB133
	.4byte	.LFE133-.LFB133
	.byte	0x4
	.4byte	.LCFI32-.LFB133
	.byte	0xe
	.uleb128 0x4
	.byte	0x8e
	.uleb128 0x1
	.byte	0x4
	.4byte	.LCFI33-.LCFI32
	.byte	0xe
	.uleb128 0x20
	.align	2
.LEFDE130:
.LSFDE132:
	.4byte	.LEFDE132-.LASFDE132
.LASFDE132:
	.4byte	.Lframe0
	.4byte	.LFB134
	.4byte	.LFE134-.LFB134
	.byte	0x4
	.4byte	.LCFI34-.LFB134
	.byte	0xe
	.uleb128 0x8
	.byte	0x84
	.uleb128 0x2
	.byte	0x8e
	.uleb128 0x1
	.align	2
.LEFDE132:
.LSFDE134:
	.4byte	.LEFDE134-.LASFDE134
.LASFDE134:
	.4byte	.Lframe0
	.4byte	.LFB135
	.4byte	.LFE135-.LFB135
	.byte	0x4
	.4byte	.LCFI35-.LFB135
	.byte	0xe
	.uleb128 0x8
	.align	2
.LEFDE134:
.LSFDE136:
	.4byte	.LEFDE136-.LASFDE136
.LASFDE136:
	.4byte	.Lframe0
	.4byte	.LFB136
	.4byte	.LFE136-.LFB136
	.byte	0x4
	.4byte	.LCFI36-.LFB136
	.byte	0xe
	.uleb128 0x8
	.align	2
.LEFDE136:
.LSFDE138:
	.4byte	.LEFDE138-.LASFDE138
.LASFDE138:
	.4byte	.Lframe0
	.4byte	.LFB137
	.4byte	.LFE137-.LFB137
	.byte	0x4
	.4byte	.LCFI37-.LFB137
	.byte	0xe
	.uleb128 0x8
	.align	2
.LEFDE138:
.LSFDE140:
	.4byte	.LEFDE140-.LASFDE140
.LASFDE140:
	.4byte	.Lframe0
	.4byte	.LFB138
	.4byte	.LFE138-.LFB138
	.byte	0x4
	.4byte	.LCFI38-.LFB138
	.byte	0xe
	.uleb128 0x8
	.byte	0x84
	.uleb128 0x2
	.byte	0x8e
	.uleb128 0x1
	.byte	0x4
	.4byte	.LCFI39-.LCFI38
	.byte	0xe
	.uleb128 0x28
	.align	2
.LEFDE140:
.LSFDE142:
	.4byte	.LEFDE142-.LASFDE142
.LASFDE142:
	.4byte	.Lframe0
	.4byte	.LFB139
	.4byte	.LFE139-.LFB139
	.byte	0x4
	.4byte	.LCFI40-.LFB139
	.byte	0xe
	.uleb128 0x8
	.byte	0x84
	.uleb128 0x2
	.byte	0x8e
	.uleb128 0x1
	.byte	0x4
	.4byte	.LCFI41-.LCFI40
	.byte	0xe
	.uleb128 0x20
	.align	2
.LEFDE142:
.LSFDE144:
	.4byte	.LEFDE144-.LASFDE144
.LASFDE144:
	.4byte	.Lframe0
	.4byte	.LFB140
	.4byte	.LFE140-.LFB140
	.byte	0x4
	.4byte	.LCFI42-.LFB140
	.byte	0xe
	.uleb128 0x4
	.byte	0x8e
	.uleb128 0x1
	.byte	0x4
	.4byte	.LCFI43-.LCFI42
	.byte	0xe
	.uleb128 0x20
	.align	2
.LEFDE144:
.LSFDE146:
	.4byte	.LEFDE146-.LASFDE146
.LASFDE146:
	.4byte	.Lframe0
	.4byte	.LFB141
	.4byte	.LFE141-.LFB141
	.byte	0x4
	.4byte	.LCFI44-.LFB141
	.byte	0xe
	.uleb128 0x4
	.byte	0x8e
	.uleb128 0x1
	.byte	0x4
	.4byte	.LCFI45-.LCFI44
	.byte	0xe
	.uleb128 0x20
	.align	2
.LEFDE146:
.LSFDE148:
	.4byte	.LEFDE148-.LASFDE148
.LASFDE148:
	.4byte	.Lframe0
	.4byte	.LFB142
	.4byte	.LFE142-.LFB142
	.byte	0x4
	.4byte	.LCFI46-.LFB142
	.byte	0xe
	.uleb128 0x4
	.byte	0x8e
	.uleb128 0x1
	.byte	0x4
	.4byte	.LCFI47-.LCFI46
	.byte	0xe
	.uleb128 0x20
	.align	2
.LEFDE148:
.LSFDE150:
	.4byte	.LEFDE150-.LASFDE150
.LASFDE150:
	.4byte	.Lframe0
	.4byte	.LFB143
	.4byte	.LFE143-.LFB143
	.byte	0x4
	.4byte	.LCFI48-.LFB143
	.byte	0xe
	.uleb128 0x8
	.byte	0x84
	.uleb128 0x2
	.byte	0x8e
	.uleb128 0x1
	.byte	0x4
	.4byte	.LCFI49-.LCFI48
	.byte	0xe
	.uleb128 0x20
	.align	2
.LEFDE150:
.LSFDE152:
	.4byte	.LEFDE152-.LASFDE152
.LASFDE152:
	.4byte	.Lframe0
	.4byte	.LFB144
	.4byte	.LFE144-.LFB144
	.byte	0x4
	.4byte	.LCFI50-.LFB144
	.byte	0xe
	.uleb128 0x4
	.byte	0x8e
	.uleb128 0x1
	.byte	0x4
	.4byte	.LCFI51-.LCFI50
	.byte	0xe
	.uleb128 0x28
	.align	2
.LEFDE152:
.LSFDE154:
	.4byte	.LEFDE154-.LASFDE154
.LASFDE154:
	.4byte	.Lframe0
	.4byte	.LFB145
	.4byte	.LFE145-.LFB145
	.byte	0x4
	.4byte	.LCFI52-.LFB145
	.byte	0xe
	.uleb128 0x4
	.byte	0x8e
	.uleb128 0x1
	.byte	0x4
	.4byte	.LCFI53-.LCFI52
	.byte	0xe
	.uleb128 0x20
	.align	2
.LEFDE154:
.LSFDE156:
	.4byte	.LEFDE156-.LASFDE156
.LASFDE156:
	.4byte	.Lframe0
	.4byte	.LFB146
	.4byte	.LFE146-.LFB146
	.byte	0x4
	.4byte	.LCFI54-.LFB146
	.byte	0xe
	.uleb128 0x8
	.byte	0x84
	.uleb128 0x2
	.byte	0x8e
	.uleb128 0x1
	.byte	0x4
	.4byte	.LCFI55-.LCFI54
	.byte	0xe
	.uleb128 0x20
	.align	2
.LEFDE156:
.LSFDE158:
	.4byte	.LEFDE158-.LASFDE158
.LASFDE158:
	.4byte	.Lframe0
	.4byte	.LFB147
	.4byte	.LFE147-.LFB147
	.byte	0x4
	.4byte	.LCFI56-.LFB147
	.byte	0xe
	.uleb128 0x8
	.align	2
.LEFDE158:
.LSFDE160:
	.4byte	.LEFDE160-.LASFDE160
.LASFDE160:
	.4byte	.Lframe0
	.4byte	.LFB148
	.4byte	.LFE148-.LFB148
	.byte	0x4
	.4byte	.LCFI57-.LFB148
	.byte	0xe
	.uleb128 0x10
	.align	2
.LEFDE160:
.LSFDE162:
	.4byte	.LEFDE162-.LASFDE162
.LASFDE162:
	.4byte	.Lframe0
	.4byte	.LFB149
	.4byte	.LFE149-.LFB149
	.byte	0x4
	.4byte	.LCFI58-.LFB149
	.byte	0xe
	.uleb128 0x8
	.byte	0x84
	.uleb128 0x2
	.byte	0x8e
	.uleb128 0x1
	.align	2
.LEFDE162:
.LSFDE164:
	.4byte	.LEFDE164-.LASFDE164
.LASFDE164:
	.4byte	.Lframe0
	.4byte	.LFB150
	.4byte	.LFE150-.LFB150
	.byte	0x4
	.4byte	.LCFI59-.LFB150
	.byte	0xe
	.uleb128 0x4
	.byte	0x8e
	.uleb128 0x1
	.byte	0x4
	.4byte	.LCFI60-.LCFI59
	.byte	0xe
	.uleb128 0x10
	.align	2
.LEFDE164:
.LSFDE166:
	.4byte	.LEFDE166-.LASFDE166
.LASFDE166:
	.4byte	.Lframe0
	.4byte	.LFB151
	.4byte	.LFE151-.LFB151
	.byte	0x4
	.4byte	.LCFI61-.LFB151
	.byte	0xe
	.uleb128 0x8
	.byte	0x84
	.uleb128 0x2
	.byte	0x8e
	.uleb128 0x1
	.byte	0x4
	.4byte	.LCFI62-.LCFI61
	.byte	0xe
	.uleb128 0x20
	.align	2
.LEFDE166:
.LSFDE168:
	.4byte	.LEFDE168-.LASFDE168
.LASFDE168:
	.4byte	.Lframe0
	.4byte	.LFB152
	.4byte	.LFE152-.LFB152
	.byte	0x4
	.4byte	.LCFI63-.LFB152
	.byte	0xe
	.uleb128 0x4
	.byte	0x8e
	.uleb128 0x1
	.byte	0x4
	.4byte	.LCFI64-.LCFI63
	.byte	0xe
	.uleb128 0x10
	.align	2
.LEFDE168:
.LSFDE170:
	.4byte	.LEFDE170-.LASFDE170
.LASFDE170:
	.4byte	.Lframe0
	.4byte	.LFB153
	.4byte	.LFE153-.LFB153
	.byte	0x4
	.4byte	.LCFI65-.LFB153
	.byte	0xe
	.uleb128 0x8
	.byte	0x84
	.uleb128 0x2
	.byte	0x8e
	.uleb128 0x1
	.align	2
.LEFDE170:
.LSFDE172:
	.4byte	.LEFDE172-.LASFDE172
.LASFDE172:
	.4byte	.Lframe0
	.4byte	.LFB154
	.4byte	.LFE154-.LFB154
	.byte	0x4
	.4byte	.LCFI66-.LFB154
	.byte	0xe
	.uleb128 0x8
	.byte	0x84
	.uleb128 0x2
	.byte	0x8e
	.uleb128 0x1
	.align	2
.LEFDE172:
.LSFDE174:
	.4byte	.LEFDE174-.LASFDE174
.LASFDE174:
	.4byte	.Lframe0
	.4byte	.LFB155
	.4byte	.LFE155-.LFB155
	.byte	0x4
	.4byte	.LCFI67-.LFB155
	.byte	0xe
	.uleb128 0x8
	.byte	0x84
	.uleb128 0x2
	.byte	0x8e
	.uleb128 0x1
	.align	2
.LEFDE174:
.LSFDE176:
	.4byte	.LEFDE176-.LASFDE176
.LASFDE176:
	.4byte	.Lframe0
	.4byte	.LFB156
	.4byte	.LFE156-.LFB156
	.byte	0x4
	.4byte	.LCFI68-.LFB156
	.byte	0xe
	.uleb128 0x8
	.align	2
.LEFDE176:
.LSFDE178:
	.4byte	.LEFDE178-.LASFDE178
.LASFDE178:
	.4byte	.Lframe0
	.4byte	.LFB157
	.4byte	.LFE157-.LFB157
	.byte	0x4
	.4byte	.LCFI69-.LFB157
	.byte	0xe
	.uleb128 0x8
	.align	2
.LEFDE178:
.LSFDE180:
	.4byte	.LEFDE180-.LASFDE180
.LASFDE180:
	.4byte	.Lframe0
	.4byte	.LFB158
	.4byte	.LFE158-.LFB158
	.byte	0x4
	.4byte	.LCFI70-.LFB158
	.byte	0xe
	.uleb128 0x8
	.byte	0x84
	.uleb128 0x2
	.byte	0x8e
	.uleb128 0x1
	.align	2
.LEFDE180:
.LSFDE182:
	.4byte	.LEFDE182-.LASFDE182
.LASFDE182:
	.4byte	.Lframe0
	.4byte	.LFB159
	.4byte	.LFE159-.LFB159
	.byte	0x4
	.4byte	.LCFI71-.LFB159
	.byte	0xe
	.uleb128 0x4
	.byte	0x8e
	.uleb128 0x1
	.byte	0x4
	.4byte	.LCFI72-.LCFI71
	.byte	0xe
	.uleb128 0x20
	.align	2
.LEFDE182:
.LSFDE184:
	.4byte	.LEFDE184-.LASFDE184
.LASFDE184:
	.4byte	.Lframe0
	.4byte	.LFB160
	.4byte	.LFE160-.LFB160
	.byte	0x4
	.4byte	.LCFI73-.LFB160
	.byte	0xe
	.uleb128 0x4
	.byte	0x8e
	.uleb128 0x1
	.byte	0x4
	.4byte	.LCFI74-.LCFI73
	.byte	0xe
	.uleb128 0x20
	.align	2
.LEFDE184:
.LSFDE186:
	.4byte	.LEFDE186-.LASFDE186
.LASFDE186:
	.4byte	.Lframe0
	.4byte	.LFB161
	.4byte	.LFE161-.LFB161
	.byte	0x4
	.4byte	.LCFI75-.LFB161
	.byte	0xe
	.uleb128 0x4
	.byte	0x8e
	.uleb128 0x1
	.byte	0x4
	.4byte	.LCFI76-.LCFI75
	.byte	0xe
	.uleb128 0x18
	.align	2
.LEFDE186:
.LSFDE188:
	.4byte	.LEFDE188-.LASFDE188
.LASFDE188:
	.4byte	.Lframe0
	.4byte	.LFB162
	.4byte	.LFE162-.LFB162
	.byte	0x4
	.4byte	.LCFI77-.LFB162
	.byte	0xe
	.uleb128 0x4
	.byte	0x8e
	.uleb128 0x1
	.byte	0x4
	.4byte	.LCFI78-.LCFI77
	.byte	0xe
	.uleb128 0x18
	.align	2
.LEFDE188:
.LSFDE190:
	.4byte	.LEFDE190-.LASFDE190
.LASFDE190:
	.4byte	.Lframe0
	.4byte	.LFB163
	.4byte	.LFE163-.LFB163
	.byte	0x4
	.4byte	.LCFI79-.LFB163
	.byte	0xe
	.uleb128 0x4
	.byte	0x8e
	.uleb128 0x1
	.byte	0x4
	.4byte	.LCFI80-.LCFI79
	.byte	0xe
	.uleb128 0x30
	.align	2
.LEFDE190:
.LSFDE192:
	.4byte	.LEFDE192-.LASFDE192
.LASFDE192:
	.4byte	.Lframe0
	.4byte	.LFB164
	.4byte	.LFE164-.LFB164
	.byte	0x4
	.4byte	.LCFI81-.LFB164
	.byte	0xe
	.uleb128 0x8
	.byte	0x84
	.uleb128 0x2
	.byte	0x8e
	.uleb128 0x1
	.align	2
.LEFDE192:
.LSFDE194:
	.4byte	.LEFDE194-.LASFDE194
.LASFDE194:
	.4byte	.Lframe0
	.4byte	.LFB165
	.4byte	.LFE165-.LFB165
	.byte	0x4
	.4byte	.LCFI82-.LFB165
	.byte	0xe
	.uleb128 0x4
	.byte	0x8e
	.uleb128 0x1
	.byte	0x4
	.4byte	.LCFI83-.LCFI82
	.byte	0xe
	.uleb128 0x10
	.align	2
.LEFDE194:
.LSFDE196:
	.4byte	.LEFDE196-.LASFDE196
.LASFDE196:
	.4byte	.Lframe0
	.4byte	.LFB166
	.4byte	.LFE166-.LFB166
	.byte	0x4
	.4byte	.LCFI84-.LFB166
	.byte	0xe
	.uleb128 0x4
	.byte	0x8e
	.uleb128 0x1
	.byte	0x4
	.4byte	.LCFI85-.LCFI84
	.byte	0xe
	.uleb128 0x48
	.align	2
.LEFDE196:
.LSFDE198:
	.4byte	.LEFDE198-.LASFDE198
.LASFDE198:
	.4byte	.Lframe0
	.4byte	.LFB167
	.4byte	.LFE167-.LFB167
	.byte	0x4
	.4byte	.LCFI86-.LFB167
	.byte	0xe
	.uleb128 0x10
	.align	2
.LEFDE198:
.LSFDE200:
	.4byte	.LEFDE200-.LASFDE200
.LASFDE200:
	.4byte	.Lframe0
	.4byte	.LFB168
	.4byte	.LFE168-.LFB168
	.byte	0x4
	.4byte	.LCFI87-.LFB168
	.byte	0xe
	.uleb128 0x8
	.byte	0x84
	.uleb128 0x2
	.byte	0x8e
	.uleb128 0x1
	.byte	0x4
	.4byte	.LCFI88-.LCFI87
	.byte	0xe
	.uleb128 0x40
	.align	2
.LEFDE200:
.LSFDE202:
	.4byte	.LEFDE202-.LASFDE202
.LASFDE202:
	.4byte	.Lframe0
	.4byte	.LFB169
	.4byte	.LFE169-.LFB169
	.byte	0x4
	.4byte	.LCFI89-.LFB169
	.byte	0xe
	.uleb128 0x4
	.byte	0x8e
	.uleb128 0x1
	.byte	0x4
	.4byte	.LCFI90-.LCFI89
	.byte	0xe
	.uleb128 0x18
	.align	2
.LEFDE202:
.LSFDE204:
	.4byte	.LEFDE204-.LASFDE204
.LASFDE204:
	.4byte	.Lframe0
	.4byte	.LFB170
	.4byte	.LFE170-.LFB170
	.byte	0x4
	.4byte	.LCFI91-.LFB170
	.byte	0xe
	.uleb128 0x4
	.byte	0x8e
	.uleb128 0x1
	.byte	0x4
	.4byte	.LCFI92-.LCFI91
	.byte	0xe
	.uleb128 0x18
	.align	2
.LEFDE204:
.LSFDE206:
	.4byte	.LEFDE206-.LASFDE206
.LASFDE206:
	.4byte	.Lframe0
	.4byte	.LFB171
	.4byte	.LFE171-.LFB171
	.byte	0x4
	.4byte	.LCFI93-.LFB171
	.byte	0xe
	.uleb128 0x4
	.byte	0x8e
	.uleb128 0x1
	.byte	0x4
	.4byte	.LCFI94-.LCFI93
	.byte	0xe
	.uleb128 0x18
	.align	2
.LEFDE206:
.LSFDE208:
	.4byte	.LEFDE208-.LASFDE208
.LASFDE208:
	.4byte	.Lframe0
	.4byte	.LFB172
	.4byte	.LFE172-.LFB172
	.byte	0x4
	.4byte	.LCFI95-.LFB172
	.byte	0xe
	.uleb128 0x4
	.byte	0x8e
	.uleb128 0x1
	.byte	0x4
	.4byte	.LCFI96-.LCFI95
	.byte	0xe
	.uleb128 0x18
	.align	2
.LEFDE208:
.LSFDE210:
	.4byte	.LEFDE210-.LASFDE210
.LASFDE210:
	.4byte	.Lframe0
	.4byte	.LFB173
	.4byte	.LFE173-.LFB173
	.byte	0x4
	.4byte	.LCFI97-.LFB173
	.byte	0xe
	.uleb128 0x4
	.byte	0x8e
	.uleb128 0x1
	.byte	0x4
	.4byte	.LCFI98-.LCFI97
	.byte	0xe
	.uleb128 0x10
	.align	2
.LEFDE210:
.LSFDE212:
	.4byte	.LEFDE212-.LASFDE212
.LASFDE212:
	.4byte	.Lframe0
	.4byte	.LFB174
	.4byte	.LFE174-.LFB174
	.byte	0x4
	.4byte	.LCFI99-.LFB174
	.byte	0xe
	.uleb128 0x4
	.byte	0x8e
	.uleb128 0x1
	.byte	0x4
	.4byte	.LCFI100-.LCFI99
	.byte	0xe
	.uleb128 0x18
	.align	2
.LEFDE212:
.LSFDE214:
	.4byte	.LEFDE214-.LASFDE214
.LASFDE214:
	.4byte	.Lframe0
	.4byte	.LFB175
	.4byte	.LFE175-.LFB175
	.byte	0x4
	.4byte	.LCFI101-.LFB175
	.byte	0xe
	.uleb128 0x4
	.byte	0x8e
	.uleb128 0x1
	.byte	0x4
	.4byte	.LCFI102-.LCFI101
	.byte	0xe
	.uleb128 0x10
	.align	2
.LEFDE214:
.LSFDE216:
	.4byte	.LEFDE216-.LASFDE216
.LASFDE216:
	.4byte	.Lframe0
	.4byte	.LFB176
	.4byte	.LFE176-.LFB176
	.byte	0x4
	.4byte	.LCFI103-.LFB176
	.byte	0xe
	.uleb128 0x4
	.byte	0x8e
	.uleb128 0x1
	.byte	0x4
	.4byte	.LCFI104-.LCFI103
	.byte	0xe
	.uleb128 0x30
	.align	2
.LEFDE216:
.LSFDE218:
	.4byte	.LEFDE218-.LASFDE218
.LASFDE218:
	.4byte	.Lframe0
	.4byte	.LFB177
	.4byte	.LFE177-.LFB177
	.byte	0x4
	.4byte	.LCFI105-.LFB177
	.byte	0xe
	.uleb128 0x4
	.byte	0x8e
	.uleb128 0x1
	.byte	0x4
	.4byte	.LCFI106-.LCFI105
	.byte	0xe
	.uleb128 0x30
	.align	2
.LEFDE218:
.LSFDE220:
	.4byte	.LEFDE220-.LASFDE220
.LASFDE220:
	.4byte	.Lframe0
	.4byte	.LFB178
	.4byte	.LFE178-.LFB178
	.byte	0x4
	.4byte	.LCFI107-.LFB178
	.byte	0xe
	.uleb128 0x4
	.byte	0x8e
	.uleb128 0x1
	.byte	0x4
	.4byte	.LCFI108-.LCFI107
	.byte	0xe
	.uleb128 0x28
	.align	2
.LEFDE220:
.LSFDE222:
	.4byte	.LEFDE222-.LASFDE222
.LASFDE222:
	.4byte	.Lframe0
	.4byte	.LFB179
	.4byte	.LFE179-.LFB179
	.byte	0x4
	.4byte	.LCFI109-.LFB179
	.byte	0xe
	.uleb128 0x4
	.byte	0x8e
	.uleb128 0x1
	.byte	0x4
	.4byte	.LCFI110-.LCFI109
	.byte	0xe
	.uleb128 0x10
	.align	2
.LEFDE222:
.LSFDE224:
	.4byte	.LEFDE224-.LASFDE224
.LASFDE224:
	.4byte	.Lframe0
	.4byte	.LFB180
	.4byte	.LFE180-.LFB180
	.byte	0x4
	.4byte	.LCFI111-.LFB180
	.byte	0xe
	.uleb128 0x4
	.byte	0x8e
	.uleb128 0x1
	.byte	0x4
	.4byte	.LCFI112-.LCFI111
	.byte	0xe
	.uleb128 0x18
	.align	2
.LEFDE224:
.LSFDE226:
	.4byte	.LEFDE226-.LASFDE226
.LASFDE226:
	.4byte	.Lframe0
	.4byte	.LFB181
	.4byte	.LFE181-.LFB181
	.byte	0x4
	.4byte	.LCFI113-.LFB181
	.byte	0xe
	.uleb128 0x4
	.byte	0x8e
	.uleb128 0x1
	.byte	0x4
	.4byte	.LCFI114-.LCFI113
	.byte	0xe
	.uleb128 0x18
	.align	2
.LEFDE226:
.LSFDE228:
	.4byte	.LEFDE228-.LASFDE228
.LASFDE228:
	.4byte	.Lframe0
	.4byte	.LFB182
	.4byte	.LFE182-.LFB182
	.byte	0x4
	.4byte	.LCFI115-.LFB182
	.byte	0xe
	.uleb128 0x4
	.byte	0x8e
	.uleb128 0x1
	.byte	0x4
	.4byte	.LCFI116-.LCFI115
	.byte	0xe
	.uleb128 0x18
	.align	2
.LEFDE228:
.LSFDE230:
	.4byte	.LEFDE230-.LASFDE230
.LASFDE230:
	.4byte	.Lframe0
	.4byte	.LFB183
	.4byte	.LFE183-.LFB183
	.byte	0x4
	.4byte	.LCFI117-.LFB183
	.byte	0xe
	.uleb128 0x4
	.byte	0x8e
	.uleb128 0x1
	.byte	0x4
	.4byte	.LCFI118-.LCFI117
	.byte	0xe
	.uleb128 0x10
	.align	2
.LEFDE230:
.LSFDE232:
	.4byte	.LEFDE232-.LASFDE232
.LASFDE232:
	.4byte	.Lframe0
	.4byte	.LFB184
	.4byte	.LFE184-.LFB184
	.byte	0x4
	.4byte	.LCFI119-.LFB184
	.byte	0xe
	.uleb128 0x8
	.align	2
.LEFDE232:
.LSFDE234:
	.4byte	.LEFDE234-.LASFDE234
.LASFDE234:
	.4byte	.Lframe0
	.4byte	.LFB185
	.4byte	.LFE185-.LFB185
	.byte	0x4
	.4byte	.LCFI120-.LFB185
	.byte	0xe
	.uleb128 0x4
	.byte	0x8e
	.uleb128 0x1
	.byte	0x4
	.4byte	.LCFI121-.LCFI120
	.byte	0xe
	.uleb128 0x20
	.align	2
.LEFDE234:
	.text
.Letext0:
	.file 4 "D:/Program Files/SEGGER/SEGGER Embedded Studio for ARM 3.34b/include/stdint.h"
	.file 5 "D:/Program Files/SEGGER/SEGGER Embedded Studio for ARM 3.34b/include/__crossworks.h"
	.file 6 "./../../../../../../components/libraries/util/sdk_errors.h"
	.file 7 "./../../../../../../components/toolchain/system_nrf51.h"
	.file 8 "./../../../../../../components/softdevice/s130/headers/nrf_nvic.h"
	.file 9 "D:/Program Files/SEGGER/SEGGER Embedded Studio for ARM 3.34b/include/stdio.h"
	.file 10 "E:\\personnelpositioning\\core\\nRF5_SDK_12.3.0_d7731ad\\components\\libraries\\fds\\fds.h"
	.file 11 "E:\\personnelpositioning\\core\\nRF5_SDK_12.3.0_d7731ad\\components\\libraries\\fds\\fds_internal_defs.h"
	.file 12 "./../../../../../../components/libraries/fstorage/fstorage.h"