	.cpu cortex-m0
	.eabi_attribute 20, 1
	.eabi_attribute 21, 1
	.eabi_attribute 23, 3
	.eabi_attribute 24, 1
	.eabi_attribute 25, 1
	.eabi_attribute 26, 1
	.eabi_attribute 30, 6
	.eabi_attribute 34, 0
	.eabi_attribute 18, 4
	.file	"fstorage.c"
	.text
.Ltext0:
	.section	.text.fs_flash_page_end_addr,"ax",%progbits
	.align	1
	.syntax unified
	.code	16
	.thumb_func
	.fpu softvfp
	.type	fs_flash_page_end_addr, %function
fs_flash_page_end_addr:
.LFB51:
	.file 1 "E:\\personnelpositioning\\core\\nRF5_SDK_12.3.0_d7731ad\\components\\libraries\\fstorage\\fstorage_internal_defs.h"
	.loc 1 147 0
	@ args = 0, pretend = 0, frame = 8
	@ frame_needed = 0, uses_anonymous_args = 0
	@ link register save eliminated.
	sub	sp, sp, #8
.LCFI0:
	.loc 1 148 0
	ldr	r3, .L5
	ldr	r3, [r3, #20]
	str	r3, [sp, #4]
	.loc 1 150 0
	ldr	r3, [sp, #4]
	adds	r3, r3, #1
	bne	.L2
	.loc 1 151 0 discriminator 1
	movs	r3, #128
	lsls	r3, r3, #21
	ldr	r3, [r3, #20]
	lsls	r3, r3, #10
	.loc 1 150 0 discriminator 1
	b	.L4
.L2:
	.loc 1 150 0 is_stmt 0 discriminator 2
	ldr	r3, [sp, #4]
.L4:
	.loc 1 152 0 is_stmt 1 discriminator 5
	movs	r0, r3
	add	sp, sp, #8
	@ sp needed
	bx	lr
.L6:
	.align	2
.L5:
	.word	268439552
.LFE51:
	.size	fs_flash_page_end_addr, .-fs_flash_page_end_addr
	.section	.text.sd_mutex_new,"ax",%progbits
	.align	1
	.syntax unified
	.code	16
	.thumb_func
	.fpu softvfp
	.type	sd_mutex_new, %function
sd_mutex_new:
.LFB52:
	.file 2 "./../../../../../../components/softdevice/s130/headers/nrf_soc.h"
	.loc 2 383 0
	@ Naked Function: prologue and epilogue provided by programmer.
	@ args = 0, pretend = 0, frame = 0
	@ frame_needed = 0, uses_anonymous_args = 0
	.loc 2 383 0
	.syntax divided
@ 383 "./../../../../../../components/softdevice/s130/headers/nrf_soc.h" 1
	svc #43
bx r14
@ 0 "" 2
	.thumb
	.syntax unified
	nop
	movs	r0, r3
.LFE52:
	.size	sd_mutex_new, .-sd_mutex_new
	.section	.text.sd_mutex_acquire,"ax",%progbits
	.align	1
	.syntax unified
	.code	16
	.thumb_func
	.fpu softvfp
	.type	sd_mutex_acquire, %function
sd_mutex_acquire:
.LFB53:
	.loc 2 392 0
	@ Naked Function: prologue and epilogue provided by programmer.
	@ args = 0, pretend = 0, frame = 0
	@ frame_needed = 0, uses_anonymous_args = 0
	.loc 2 392 0
	.syntax divided
@ 392 "./../../../../../../components/softdevice/s130/headers/nrf_soc.h" 1
	svc #44
bx r14
@ 0 "" 2
	.thumb
	.syntax unified
	nop
	movs	r0, r3
.LFE53:
	.size	sd_mutex_acquire, .-sd_mutex_acquire
	.section	.text.sd_mutex_release,"ax",%progbits
	.align	1
	.syntax unified
	.code	16
	.thumb_func
	.fpu softvfp
	.type	sd_mutex_release, %function
sd_mutex_release:
.LFB54:
	.loc 2 400 0
	@ Naked Function: prologue and epilogue provided by programmer.
	@ args = 0, pretend = 0, frame = 0
	@ frame_needed = 0, uses_anonymous_args = 0
	.loc 2 400 0
	.syntax divided
@ 400 "./../../../../../../components/softdevice/s130/headers/nrf_soc.h" 1
	svc #45
bx r14
@ 0 "" 2
	.thumb
	.syntax unified
	nop
	movs	r0, r3
.LFE54:
	.size	sd_mutex_release, .-sd_mutex_release
	.section	.text.sd_rand_application_pool_capacity_get,"ax",%progbits
	.align	1
	.syntax unified
	.code	16
	.thumb_func
	.fpu softvfp
	.type	sd_rand_application_pool_capacity_get, %function
sd_rand_application_pool_capacity_get:
.LFB55:
	.loc 2 408 0
	@ Naked Function: prologue and epilogue provided by programmer.
	@ args = 0, pretend = 0, frame = 0
	@ frame_needed = 0, uses_anonymous_args = 0
	.loc 2 408 0
	.syntax divided
@ 408 "./../../../../../../components/softdevice/s130/headers/nrf_soc.h" 1
	svc #56
bx r14
@ 0 "" 2
	.thumb
	.syntax unified
	nop
	movs	r0, r3
.LFE55:
	.size	sd_rand_application_pool_capacity_get, .-sd_rand_application_pool_capacity_get
	.section	.text.sd_rand_application_bytes_available_get,"ax",%progbits
	.align	1
	.syntax unified
	.code	16
	.thumb_func
	.fpu softvfp
	.type	sd_rand_application_bytes_available_get, %function
sd_rand_application_bytes_available_get:
.LFB56:
	.loc 2 416 0
	@ Naked Function: prologue and epilogue provided by programmer.
	@ args = 0, pretend = 0, frame = 0
	@ frame_needed = 0, uses_anonymous_args = 0
	.loc 2 416 0
	.syntax divided
@ 416 "./../../../../../../components/softdevice/s130/headers/nrf_soc.h" 1
	svc #57
bx r14
@ 0 "" 2
	.thumb
	.syntax unified
	nop
	movs	r0, r3
.LFE56:
	.size	sd_rand_application_bytes_available_get, .-sd_rand_application_bytes_available_get
	.section	.text.sd_rand_application_vector_get,"ax",%progbits
	.align	1
	.syntax unified
	.code	16
	.thumb_func
	.fpu softvfp
	.type	sd_rand_application_vector_get, %function
sd_rand_application_vector_get:
.LFB57:
	.loc 2 426 0
	@ Naked Function: prologue and epilogue provided by programmer.
	@ args = 0, pretend = 0, frame = 0
	@ frame_needed = 0, uses_anonymous_args = 0
	.loc 2 426 0
	.syntax divided
@ 426 "./../../../../../../components/softdevice/s130/headers/nrf_soc.h" 1
	svc #58
bx r14
@ 0 "" 2
	.thumb
	.syntax unified
	nop
	movs	r0, r3
.LFE57:
	.size	sd_rand_application_vector_get, .-sd_rand_application_vector_get
	.section	.text.sd_power_reset_reason_get,"ax",%progbits
	.align	1
	.syntax unified
	.code	16
	.thumb_func
	.fpu softvfp
	.type	sd_power_reset_reason_get, %function
sd_power_reset_reason_get:
.LFB58:
	.loc 2 434 0
	@ Naked Function: prologue and epilogue provided by programmer.
	@ args = 0, pretend = 0, frame = 0
	@ frame_needed = 0, uses_anonymous_args = 0
	.loc 2 434 0
	.syntax divided
@ 434 "./../../../../../../components/softdevice/s130/headers/nrf_soc.h" 1
	svc #61
bx r14
@ 0 "" 2
	.thumb
	.syntax unified
	nop
	movs	r0, r3
.LFE58:
	.size	sd_power_reset_reason_get, .-sd_power_reset_reason_get
	.section	.text.sd_power_reset_reason_clr,"ax",%progbits
	.align	1
	.syntax unified
	.code	16
	.thumb_func
	.fpu softvfp
	.type	sd_power_reset_reason_clr, %function
sd_power_reset_reason_clr:
.LFB59:
	.loc 2 442 0
	@ Naked Function: prologue and epilogue provided by programmer.
	@ args = 0, pretend = 0, frame = 0
	@ frame_needed = 0, uses_anonymous_args = 0
	.loc 2 442 0
	.syntax divided
@ 442 "./../../../../../../components/softdevice/s130/headers/nrf_soc.h" 1
	svc #62
bx r14
@ 0 "" 2
	.thumb
	.syntax unified
	nop
	movs	r0, r3
.LFE59:
	.size	sd_power_reset_reason_clr, .-sd_power_reset_reason_clr
	.section	.text.sd_power_mode_set,"ax",%progbits
	.align	1
	.syntax unified
	.code	16
	.thumb_func
	.fpu softvfp
	.type	sd_power_mode_set, %function
sd_power_mode_set:
.LFB60:
	.loc 2 451 0
	@ Naked Function: prologue and epilogue provided by programmer.
	@ args = 0, pretend = 0, frame = 0
	@ frame_needed = 0, uses_anonymous_args = 0
	.loc 2 451 0
	.syntax divided
@ 451 "./../../../../../../components/softdevice/s130/headers/nrf_soc.h" 1
	svc #59
bx r14
@ 0 "" 2
	.thumb
	.syntax unified
	nop
	movs	r0, r3
.LFE60:
	.size	sd_power_mode_set, .-sd_power_mode_set
	.section	.text.sd_power_system_off,"ax",%progbits
	.align	1
	.syntax unified
	.code	16
	.thumb_func
	.fpu softvfp
	.type	sd_power_system_off, %function
sd_power_system_off:
.LFB61:
	.loc 2 457 0
	@ Naked Function: prologue and epilogue provided by programmer.
	@ args = 0, pretend = 0, frame = 0
	@ frame_needed = 0, uses_anonymous_args = 0
	.loc 2 457 0
	.syntax divided
@ 457 "./../../../../../../components/softdevice/s130/headers/nrf_soc.h" 1
	svc #60
bx r14
@ 0 "" 2
	.thumb
	.syntax unified
	nop
	movs	r0, r3
.LFE61:
	.size	sd_power_system_off, .-sd_power_system_off
	.section	.text.sd_power_pof_enable,"ax",%progbits
	.align	1
	.syntax unified
	.code	16
	.thumb_func
	.fpu softvfp
	.type	sd_power_pof_enable, %function
sd_power_pof_enable:
.LFB62:
	.loc 2 468 0
	@ Naked Function: prologue and epilogue provided by programmer.
	@ args = 0, pretend = 0, frame = 0
	@ frame_needed = 0, uses_anonymous_args = 0
	.loc 2 468 0
	.syntax divided
@ 468 "./../../../../../../components/softdevice/s130/headers/nrf_soc.h" 1
	svc #63
bx r14
@ 0 "" 2
	.thumb
	.syntax unified
	nop
	movs	r0, r3
.LFE62:
	.size	sd_power_pof_enable, .-sd_power_pof_enable
	.section	.text.sd_power_pof_threshold_set,"ax",%progbits
	.align	1
	.syntax unified
	.code	16
	.thumb_func
	.fpu softvfp
	.type	sd_power_pof_threshold_set, %function
sd_power_pof_threshold_set:
.LFB63:
	.loc 2 477 0
	@ Naked Function: prologue and epilogue provided by programmer.
	@ args = 0, pretend = 0, frame = 0
	@ frame_needed = 0, uses_anonymous_args = 0
	.loc 2 477 0
	.syntax divided
@ 477 "./../../../../../../components/softdevice/s130/headers/nrf_soc.h" 1
	svc #64
bx r14
@ 0 "" 2
	.thumb
	.syntax unified
	nop
	movs	r0, r3
.LFE63:
	.size	sd_power_pof_threshold_set, .-sd_power_pof_threshold_set
	.section	.text.sd_power_ramon_set,"ax",%progbits
	.align	1
	.syntax unified
	.code	16
	.thumb_func
	.fpu softvfp
	.type	sd_power_ramon_set, %function
sd_power_ramon_set:
.LFB64:
	.loc 2 485 0
	@ Naked Function: prologue and epilogue provided by programmer.
	@ args = 0, pretend = 0, frame = 0
	@ frame_needed = 0, uses_anonymous_args = 0
	.loc 2 485 0
	.syntax divided
@ 485 "./../../../../../../components/softdevice/s130/headers/nrf_soc.h" 1
	svc #65
bx r14
@ 0 "" 2
	.thumb
	.syntax unified
	nop
	movs	r0, r3
.LFE64:
	.size	sd_power_ramon_set, .-sd_power_ramon_set
	.section	.text.sd_power_ramon_clr,"ax",%progbits
	.align	1
	.syntax unified
	.code	16
	.thumb_func
	.fpu softvfp
	.type	sd_power_ramon_clr, %function
sd_power_ramon_clr:
.LFB65:
	.loc 2 493 0
	@ Naked Function: prologue and epilogue provided by programmer.
	@ args = 0, pretend = 0, frame = 0
	@ frame_needed = 0, uses_anonymous_args = 0
	.loc 2 493 0
	.syntax divided
@ 493 "./../../../../../../components/softdevice/s130/headers/nrf_soc.h" 1
	svc #66
bx r14
@ 0 "" 2
	.thumb
	.syntax unified
	nop
	movs	r0, r3
.LFE65:
	.size	sd_power_ramon_clr, .-sd_power_ramon_clr
	.section	.text.sd_power_ramon_get,"ax",%progbits
	.align	1
	.syntax unified
	.code	16
	.thumb_func
	.fpu softvfp
	.type	sd_power_ramon_get, %function
sd_power_ramon_get:
.LFB66:
	.loc 2 501 0
	@ Naked Function: prologue and epilogue provided by programmer.
	@ args = 0, pretend = 0, frame = 0
	@ frame_needed = 0, uses_anonymous_args = 0
	.loc 2 501 0
	.syntax divided
@ 501 "./../../../../../../components/softdevice/s130/headers/nrf_soc.h" 1
	svc #67
bx r14
@ 0 "" 2
	.thumb
	.syntax unified
	nop
	movs	r0, r3
.LFE66:
	.size	sd_power_ramon_get, .-sd_power_ramon_get
	.section	.text.sd_power_gpregret_set,"ax",%progbits
	.align	1
	.syntax unified
	.code	16
	.thumb_func
	.fpu softvfp
	.type	sd_power_gpregret_set, %function
sd_power_gpregret_set:
.LFB67:
	.loc 2 509 0
	@ Naked Function: prologue and epilogue provided by programmer.
	@ args = 0, pretend = 0, frame = 0
	@ frame_needed = 0, uses_anonymous_args = 0
	.loc 2 509 0
	.syntax divided
@ 509 "./../../../../../../components/softdevice/s130/headers/nrf_soc.h" 1
	svc #68
bx r14
@ 0 "" 2
	.thumb
	.syntax unified
	nop
	movs	r0, r3
.LFE67:
	.size	sd_power_gpregret_set, .-sd_power_gpregret_set
	.section	.text.sd_power_gpregret_clr,"ax",%progbits
	.align	1
	.syntax unified
	.code	16
	.thumb_func
	.fpu softvfp
	.type	sd_power_gpregret_clr, %function
sd_power_gpregret_clr:
.LFB68:
	.loc 2 517 0
	@ Naked Function: prologue and epilogue provided by programmer.
	@ args = 0, pretend = 0, frame = 0
	@ frame_needed = 0, uses_anonymous_args = 0
	.loc 2 517 0
	.syntax divided
@ 517 "./../../../../../../components/softdevice/s130/headers/nrf_soc.h" 1
	svc #69
bx r14
@ 0 "" 2
	.thumb
	.syntax unified
	nop
	movs	r0, r3
.LFE68:
	.size	sd_power_gpregret_clr, .-sd_power_gpregret_clr
	.section	.text.sd_power_gpregret_get,"ax",%progbits
	.align	1
	.syntax unified
	.code	16
	.thumb_func
	.fpu softvfp
	.type	sd_power_gpregret_get, %function
sd_power_gpregret_get:
.LFB69:
	.loc 2 525 0
	@ Naked Function: prologue and epilogue provided by programmer.
	@ args = 0, pretend = 0, frame = 0
	@ frame_needed = 0, uses_anonymous_args = 0
	.loc 2 525 0
	.syntax divided
@ 525 "./../../../../../../components/softdevice/s130/headers/nrf_soc.h" 1
	svc #70
bx r14
@ 0 "" 2
	.thumb
	.syntax unified
	nop
	movs	r0, r3
.LFE69:
	.size	sd_power_gpregret_get, .-sd_power_gpregret_get
	.section	.text.sd_power_dcdc_mode_set,"ax",%progbits
	.align	1
	.syntax unified
	.code	16
	.thumb_func
	.fpu softvfp
	.type	sd_power_dcdc_mode_set, %function
sd_power_dcdc_mode_set:
.LFB70:
	.loc 2 536 0
	@ Naked Function: prologue and epilogue provided by programmer.
	@ args = 0, pretend = 0, frame = 0
	@ frame_needed = 0, uses_anonymous_args = 0
	.loc 2 536 0
	.syntax divided
@ 536 "./../../../../../../components/softdevice/s130/headers/nrf_soc.h" 1
	svc #71
bx r14
@ 0 "" 2
	.thumb
	.syntax unified
	nop
	movs	r0, r3
.LFE70:
	.size	sd_power_dcdc_mode_set, .-sd_power_dcdc_mode_set
	.section	.text.sd_clock_hfclk_request,"ax",%progbits
	.align	1
	.syntax unified
	.code	16
	.thumb_func
	.fpu softvfp
	.type	sd_clock_hfclk_request, %function
sd_clock_hfclk_request:
.LFB71:
	.loc 2 548 0
	@ Naked Function: prologue and epilogue provided by programmer.
	@ args = 0, pretend = 0, frame = 0
	@ frame_needed = 0, uses_anonymous_args = 0
	.loc 2 548 0
	.syntax divided
@ 548 "./../../../../../../components/softdevice/s130/headers/nrf_soc.h" 1
	svc #73
bx r14
@ 0 "" 2
	.thumb
	.syntax unified
	nop
	movs	r0, r3
.LFE71:
	.size	sd_clock_hfclk_request, .-sd_clock_hfclk_request
	.section	.text.sd_clock_hfclk_release,"ax",%progbits
	.align	1
	.syntax unified
	.code	16
	.thumb_func
	.fpu softvfp
	.type	sd_clock_hfclk_release, %function
sd_clock_hfclk_release:
.LFB72:
	.loc 2 559 0
	@ Naked Function: prologue and epilogue provided by programmer.
	@ args = 0, pretend = 0, frame = 0
	@ frame_needed = 0, uses_anonymous_args = 0
	.loc 2 559 0
	.syntax divided
@ 559 "./../../../../../../components/softdevice/s130/headers/nrf_soc.h" 1
	svc #74
bx r14
@ 0 "" 2
	.thumb
	.syntax unified
	nop
	movs	r0, r3
.LFE72:
	.size	sd_clock_hfclk_release, .-sd_clock_hfclk_release
	.section	.text.sd_clock_hfclk_is_running,"ax",%progbits
	.align	1
	.syntax unified
	.code	16
	.thumb_func
	.fpu softvfp
	.type	sd_clock_hfclk_is_running, %function
sd_clock_hfclk_is_running:
.LFB73:
	.loc 2 570 0
	@ Naked Function: prologue and epilogue provided by programmer.
	@ args = 0, pretend = 0, frame = 0
	@ frame_needed = 0, uses_anonymous_args = 0
	.loc 2 570 0
	.syntax divided
@ 570 "./../../../../../../components/softdevice/s130/headers/nrf_soc.h" 1
	svc #75
bx r14
@ 0 "" 2
	.thumb
	.syntax unified
	nop
	movs	r0, r3
.LFE73:
	.size	sd_clock_hfclk_is_running, .-sd_clock_hfclk_is_running
	.section	.text.sd_app_evt_wait,"ax",%progbits
	.align	1
	.syntax unified
	.code	16
	.thumb_func
	.fpu softvfp
	.type	sd_app_evt_wait, %function
sd_app_evt_wait:
.LFB74:
	.loc 2 595 0
	@ Naked Function: prologue and epilogue provided by programmer.
	@ args = 0, pretend = 0, frame = 0
	@ frame_needed = 0, uses_anonymous_args = 0
	.loc 2 595 0
	.syntax divided
@ 595 "./../../../../../../components/softdevice/s130/headers/nrf_soc.h" 1
	svc #72
bx r14
@ 0 "" 2
	.thumb
	.syntax unified
	nop
	movs	r0, r3
.LFE74:
	.size	sd_app_evt_wait, .-sd_app_evt_wait
	.section	.text.sd_ppi_channel_enable_get,"ax",%progbits
	.align	1
	.syntax unified
	.code	16
	.thumb_func
	.fpu softvfp
	.type	sd_ppi_channel_enable_get, %function
sd_ppi_channel_enable_get:
.LFB75:
	.loc 2 603 0
	@ Naked Function: prologue and epilogue provided by programmer.
	@ args = 0, pretend = 0, frame = 0
	@ frame_needed = 0, uses_anonymous_args = 0
	.loc 2 603 0
	.syntax divided
@ 603 "./../../../../../../components/softdevice/s130/headers/nrf_soc.h" 1
	svc #32
bx r14
@ 0 "" 2
	.thumb
	.syntax unified
	nop
	movs	r0, r3
.LFE75:
	.size	sd_ppi_channel_enable_get, .-sd_ppi_channel_enable_get
	.section	.text.sd_ppi_channel_enable_set,"ax",%progbits
	.align	1
	.syntax unified
	.code	16
	.thumb_func
	.fpu softvfp
	.type	sd_ppi_channel_enable_set, %function
sd_ppi_channel_enable_set:
.LFB76:
	.loc 2 611 0
	@ Naked Function: prologue and epilogue provided by programmer.
	@ args = 0, pretend = 0, frame = 0
	@ frame_needed = 0, uses_anonymous_args = 0
	.loc 2 611 0
	.syntax divided
@ 611 "./../../../../../../components/softdevice/s130/headers/nrf_soc.h" 1
	svc #33
bx r14
@ 0 "" 2
	.thumb
	.syntax unified
	nop
	movs	r0, r3
.LFE76:
	.size	sd_ppi_channel_enable_set, .-sd_ppi_channel_enable_set
	.section	.text.sd_ppi_channel_enable_clr,"ax",%progbits
	.align	1
	.syntax unified
	.code	16
	.thumb_func
	.fpu softvfp
	.type	sd_ppi_channel_enable_clr, %function
sd_ppi_channel_enable_clr:
.LFB77:
	.loc 2 619 0
	@ Naked Function: prologue and epilogue provided by programmer.
	@ args = 0, pretend = 0, frame = 0
	@ frame_needed = 0, uses_anonymous_args = 0
	.loc 2 619 0
	.syntax divided
@ 619 "./../../../../../../components/softdevice/s130/headers/nrf_soc.h" 1
	svc #34
bx r14
@ 0 "" 2
	.thumb
	.syntax unified
	nop
	movs	r0, r3
.LFE77:
	.size	sd_ppi_channel_enable_clr, .-sd_ppi_channel_enable_clr
	.section	.text.sd_ppi_channel_assign,"ax",%progbits
	.align	1
	.syntax unified
	.code	16
	.thumb_func
	.fpu softvfp
	.type	sd_ppi_channel_assign, %function
sd_ppi_channel_assign:
.LFB78:
	.loc 2 630 0
	@ Naked Function: prologue and epilogue provided by programmer.
	@ args = 0, pretend = 0, frame = 0
	@ frame_needed = 0, uses_anonymous_args = 0
	.loc 2 630 0
	.syntax divided
@ 630 "./../../../../../../components/softdevice/s130/headers/nrf_soc.h" 1
	svc #35
bx r14
@ 0 "" 2
	.thumb
	.syntax unified
	nop
	movs	r0, r3
.LFE78:
	.size	sd_ppi_channel_assign, .-sd_ppi_channel_assign
	.section	.text.sd_ppi_group_task_enable,"ax",%progbits
	.align	1
	.syntax unified
	.code	16
	.thumb_func
	.fpu softvfp
	.type	sd_ppi_group_task_enable, %function
sd_ppi_group_task_enable:
.LFB79:
	.loc 2 639 0
	@ Naked Function: prologue and epilogue provided by programmer.
	@ args = 0, pretend = 0, frame = 0
	@ frame_needed = 0, uses_anonymous_args = 0
	.loc 2 639 0
	.syntax divided
@ 639 "./../../../../../../components/softdevice/s130/headers/nrf_soc.h" 1
	svc #36
bx r14
@ 0 "" 2
	.thumb
	.syntax unified
	nop
	movs	r0, r3
.LFE79:
	.size	sd_ppi_group_task_enable, .-sd_ppi_group_task_enable
	.section	.text.sd_ppi_group_task_disable,"ax",%progbits
	.align	1
	.syntax unified
	.code	16
	.thumb_func
	.fpu softvfp
	.type	sd_ppi_group_task_disable, %function
sd_ppi_group_task_disable:
.LFB80:
	.loc 2 648 0
	@ Naked Function: prologue and epilogue provided by programmer.
	@ args = 0, pretend = 0, frame = 0
	@ frame_needed = 0, uses_anonymous_args = 0
	.loc 2 648 0
	.syntax divided
@ 648 "./../../../../../../components/softdevice/s130/headers/nrf_soc.h" 1
	svc #37
bx r14
@ 0 "" 2
	.thumb
	.syntax unified
	nop
	movs	r0, r3
.LFE80:
	.size	sd_ppi_group_task_disable, .-sd_ppi_group_task_disable
	.section	.text.sd_ppi_group_assign,"ax",%progbits
	.align	1
	.syntax unified
	.code	16
	.thumb_func
	.fpu softvfp
	.type	sd_ppi_group_assign, %function
sd_ppi_group_assign:
.LFB81:
	.loc 2 658 0
	@ Naked Function: prologue and epilogue provided by programmer.
	@ args = 0, pretend = 0, frame = 0
	@ frame_needed = 0, uses_anonymous_args = 0
	.loc 2 658 0
	.syntax divided
@ 658 "./../../../../../../components/softdevice/s130/headers/nrf_soc.h" 1
	svc #38
bx r14
@ 0 "" 2
	.thumb
	.syntax unified
	nop
	movs	r0, r3
.LFE81:
	.size	sd_ppi_group_assign, .-sd_ppi_group_assign
	.section	.text.sd_ppi_group_get,"ax",%progbits
	.align	1
	.syntax unified
	.code	16
	.thumb_func
	.fpu softvfp
	.type	sd_ppi_group_get, %function
sd_ppi_group_get:
.LFB82:
	.loc 2 668 0
	@ Naked Function: prologue and epilogue provided by programmer.
	@ args = 0, pretend = 0, frame = 0
	@ frame_needed = 0, uses_anonymous_args = 0
	.loc 2 668 0
	.syntax divided
@ 668 "./../../../../../../components/softdevice/s130/headers/nrf_soc.h" 1
	svc #39
bx r14
@ 0 "" 2
	.thumb
	.syntax unified
	nop
	movs	r0, r3
.LFE82:
	.size	sd_ppi_group_get, .-sd_ppi_group_get
	.section	.text.sd_radio_notification_cfg_set,"ax",%progbits
	.align	1
	.syntax unified
	.code	16
	.thumb_func
	.fpu softvfp
	.type	sd_radio_notification_cfg_set, %function
sd_radio_notification_cfg_set:
.LFB83:
	.loc 2 697 0
	@ Naked Function: prologue and epilogue provided by programmer.
	@ args = 0, pretend = 0, frame = 0
	@ frame_needed = 0, uses_anonymous_args = 0
	.loc 2 697 0
	.syntax divided
@ 697 "./../../../../../../components/softdevice/s130/headers/nrf_soc.h" 1
	svc #76
bx r14
@ 0 "" 2
	.thumb
	.syntax unified
	nop
	movs	r0, r3
.LFE83:
	.size	sd_radio_notification_cfg_set, .-sd_radio_notification_cfg_set
	.section	.text.sd_ecb_block_encrypt,"ax",%progbits
	.align	1
	.syntax unified
	.code	16
	.thumb_func
	.fpu softvfp
	.type	sd_ecb_block_encrypt, %function
sd_ecb_block_encrypt:
.LFB84:
	.loc 2 713 0
	@ Naked Function: prologue and epilogue provided by programmer.
	@ args = 0, pretend = 0, frame = 0
	@ frame_needed = 0, uses_anonymous_args = 0
	.loc 2 713 0
	.syntax divided
@ 713 "./../../../../../../components/softdevice/s130/headers/nrf_soc.h" 1
	svc #77
bx r14
@ 0 "" 2
	.thumb
	.syntax unified
	nop
	movs	r0, r3
.LFE84:
	.size	sd_ecb_block_encrypt, .-sd_ecb_block_encrypt
	.section	.text.sd_ecb_blocks_encrypt,"ax",%progbits
	.align	1
	.syntax unified
	.code	16
	.thumb_func
	.fpu softvfp
	.type	sd_ecb_blocks_encrypt, %function
sd_ecb_blocks_encrypt:
.LFB85:
	.loc 2 730 0
	@ Naked Function: prologue and epilogue provided by programmer.
	@ args = 0, pretend = 0, frame = 0
	@ frame_needed = 0, uses_anonymous_args = 0
	.loc 2 730 0
	.syntax divided
@ 730 "./../../../../../../components/softdevice/s130/headers/nrf_soc.h" 1
	svc #78
bx r14
@ 0 "" 2
	.thumb
	.syntax unified
	nop
	movs	r0, r3
.LFE85:
	.size	sd_ecb_blocks_encrypt, .-sd_ecb_blocks_encrypt
	.section	.text.sd_evt_get,"ax",%progbits
	.align	1
	.syntax unified
	.code	16
	.thumb_func
	.fpu softvfp
	.type	sd_evt_get, %function
sd_evt_get:
.LFB86:
	.loc 2 741 0
	@ Naked Function: prologue and epilogue provided by programmer.
	@ args = 0, pretend = 0, frame = 0
	@ frame_needed = 0, uses_anonymous_args = 0
	.loc 2 741 0
	.syntax divided
@ 741 "./../../../../../../components/softdevice/s130/headers/nrf_soc.h" 1
	svc #82
bx r14
@ 0 "" 2
	.thumb
	.syntax unified
	nop
	movs	r0, r3
.LFE86:
	.size	sd_evt_get, .-sd_evt_get
	.section	.text.sd_temp_get,"ax",%progbits
	.align	1
	.syntax unified
	.code	16
	.thumb_func
	.fpu softvfp
	.type	sd_temp_get, %function
sd_temp_get:
.LFB87:
	.loc 2 752 0
	@ Naked Function: prologue and epilogue provided by programmer.
	@ args = 0, pretend = 0, frame = 0
	@ frame_needed = 0, uses_anonymous_args = 0
	.loc 2 752 0
	.syntax divided
@ 752 "./../../../../../../components/softdevice/s130/headers/nrf_soc.h" 1
	svc #83
bx r14
@ 0 "" 2
	.thumb
	.syntax unified
	nop
	movs	r0, r3
.LFE87:
	.size	sd_temp_get, .-sd_temp_get
	.section	.text.sd_flash_write,"ax",%progbits
	.align	1
	.syntax unified
	.code	16
	.thumb_func
	.fpu softvfp
	.type	sd_flash_write, %function
sd_flash_write:
.LFB88:
	.loc 2 784 0
	@ Naked Function: prologue and epilogue provided by programmer.
	@ args = 0, pretend = 0, frame = 0
	@ frame_needed = 0, uses_anonymous_args = 0
	.loc 2 784 0
	.syntax divided
@ 784 "./../../../../../../components/softdevice/s130/headers/nrf_soc.h" 1
	svc #41
bx r14
@ 0 "" 2
	.thumb
	.syntax unified
	nop
	movs	r0, r3
.LFE88:
	.size	sd_flash_write, .-sd_flash_write
	.section	.text.sd_flash_page_erase,"ax",%progbits
	.align	1
	.syntax unified
	.code	16
	.thumb_func
	.fpu softvfp
	.type	sd_flash_page_erase, %function
sd_flash_page_erase:
.LFB89:
	.loc 2 813 0
	@ Naked Function: prologue and epilogue provided by programmer.
	@ args = 0, pretend = 0, frame = 0
	@ frame_needed = 0, uses_anonymous_args = 0
	.loc 2 813 0
	.syntax divided
@ 813 "./../../../../../../components/softdevice/s130/headers/nrf_soc.h" 1
	svc #40
bx r14
@ 0 "" 2
	.thumb
	.syntax unified
	nop
	movs	r0, r3
.LFE89:
	.size	sd_flash_page_erase, .-sd_flash_page_erase
	.section	.text.sd_flash_protect,"ax",%progbits
	.align	1
	.syntax unified
	.code	16
	.thumb_func
	.fpu softvfp
	.type	sd_flash_protect, %function
sd_flash_protect:
.LFB90:
	.loc 2 832 0
	@ Naked Function: prologue and epilogue provided by programmer.
	@ args = 0, pretend = 0, frame = 0
	@ frame_needed = 0, uses_anonymous_args = 0
	.loc 2 832 0
	.syntax divided
@ 832 "./../../../../../../components/softdevice/s130/headers/nrf_soc.h" 1
	svc #42
bx r14
@ 0 "" 2
	.thumb
	.syntax unified
	nop
	movs	r0, r3
.LFE90:
	.size	sd_flash_protect, .-sd_flash_protect
	.section	.text.sd_radio_session_open,"ax",%progbits
	.align	1
	.syntax unified
	.code	16
	.thumb_func
	.fpu softvfp
	.type	sd_radio_session_open, %function
sd_radio_session_open:
.LFB91:
	.loc 2 854 0
	@ Naked Function: prologue and epilogue provided by programmer.
	@ args = 0, pretend = 0, frame = 0
	@ frame_needed = 0, uses_anonymous_args = 0
	.loc 2 854 0
	.syntax divided
@ 854 "./../../../../../../components/softdevice/s130/headers/nrf_soc.h" 1
	svc #79
bx r14
@ 0 "" 2
	.thumb
	.syntax unified
	nop
	movs	r0, r3
.LFE91:
	.size	sd_radio_session_open, .-sd_radio_session_open
	.section	.text.sd_radio_session_close,"ax",%progbits
	.align	1
	.syntax unified
	.code	16
	.thumb_func
	.fpu softvfp
	.type	sd_radio_session_close, %function
sd_radio_session_close:
.LFB92:
	.loc 2 867 0
	@ Naked Function: prologue and epilogue provided by programmer.
	@ args = 0, pretend = 0, frame = 0
	@ frame_needed = 0, uses_anonymous_args = 0
	.loc 2 867 0
	.syntax divided
@ 867 "./../../../../../../components/softdevice/s130/headers/nrf_soc.h" 1
	svc #80
bx r14
@ 0 "" 2
	.thumb
	.syntax unified
	nop
	movs	r0, r3
.LFE92:
	.size	sd_radio_session_close, .-sd_radio_session_close
	.section	.text.sd_radio_request,"ax",%progbits
	.align	1
	.syntax unified
	.code	16
	.thumb_func
	.fpu softvfp
	.type	sd_radio_request, %function
sd_radio_request:
.LFB93:
	.loc 2 899 0
	@ Naked Function: prologue and epilogue provided by programmer.
	@ args = 0, pretend = 0, frame = 0
	@ frame_needed = 0, uses_anonymous_args = 0
	.loc 2 899 0
	.syntax divided
@ 899 "./../../../../../../components/softdevice/s130/headers/nrf_soc.h" 1
	svc #81
bx r14
@ 0 "" 2
	.thumb
	.syntax unified
	nop
	movs	r0, r3
.LFE93:
	.size	sd_radio_request, .-sd_radio_request
	.section	.bss.m_flags,"aw",%nobits
	.type	m_flags, %object
	.size	m_flags, 1
m_flags:
	.space	1
	.section	.bss.m_queue,"aw",%nobits
	.align	2
	.type	m_queue, %object
	.size	m_queue, 104
m_queue:
	.space	104
	.section	.bss.m_retry_count,"aw",%nobits
	.type	m_retry_count, %object
	.size	m_retry_count, 1
m_retry_count:
	.space	1
	.section	.text.send_event,"ax",%progbits
	.align	1
	.syntax unified
	.code	16
	.thumb_func
	.fpu softvfp
	.type	send_event, %function
send_event:
.LFB94:
	.file 3 "E:\\personnelpositioning\\core\\nRF5_SDK_12.3.0_d7731ad\\components\\libraries\\fstorage\\fstorage.c"
	.loc 3 58 0
	@ args = 0, pretend = 0, frame = 24
	@ frame_needed = 0, uses_anonymous_args = 0
	push	{lr}
.LCFI1:
	sub	sp, sp, #28
.LCFI2:
	str	r0, [sp, #4]
	movs	r2, r1
	mov	r3, sp
	adds	r3, r3, #3
	strb	r2, [r3]
	.loc 3 60 0
	add	r3, sp, #8
	movs	r2, #16
	movs	r1, #0
	movs	r0, r3
	bl	memset
	.loc 3 62 0
	ldr	r3, [sp, #4]
	ldrb	r3, [r3, #8]
	cmp	r3, #1
	beq	.L51
	cmp	r3, #2
	beq	.L52
	.loc 3 78 0
	b	.L53
.L51:
	.loc 3 65 0
	add	r3, sp, #8
	movs	r2, #0
	strb	r2, [r3]
	.loc 3 66 0
	ldr	r3, [sp, #4]
	ldr	r2, [r3, #16]
	add	r3, sp, #8
	str	r2, [r3, #8]
	.loc 3 67 0
	ldr	r3, [sp, #4]
	ldrh	r2, [r3, #20]
	add	r3, sp, #8
	strh	r2, [r3, #12]
	.loc 3 68 0
	b	.L53
.L52:
	.loc 3 71 0
	add	r3, sp, #8
	movs	r2, #1
	strb	r2, [r3]
	.loc 3 72 0
	ldr	r3, [sp, #4]
	ldrh	r2, [r3, #12]
	ldr	r3, [sp, #4]
	ldrh	r3, [r3, #14]
	subs	r3, r2, r3
	uxth	r2, r3
	add	r3, sp, #8
	strh	r2, [r3, #8]
	.loc 3 73 0
	ldr	r3, [sp, #4]
	ldrh	r2, [r3, #12]
	add	r3, sp, #8
	strh	r2, [r3, #10]
	.loc 3 74 0
	nop
.L53:
	.loc 3 80 0
	ldr	r3, [sp, #4]
	ldr	r2, [r3, #4]
	add	r3, sp, #8
	str	r2, [r3, #4]
	.loc 3 82 0
	ldr	r3, [sp, #4]
	ldr	r3, [r3]
	ldr	r3, [r3, #8]
	mov	r2, sp
	adds	r2, r2, #3
	ldrb	r1, [r2]
	add	r2, sp, #8
	movs	r0, r2
	blx	r3
.LVL0:
	.loc 3 83 0
	nop
	add	sp, sp, #28
	@ sp needed
	pop	{pc}
.LFE94:
	.size	send_event, .-send_event
	.section	.text.check_config,"ax",%progbits
	.align	1
	.syntax unified
	.code	16
	.thumb_func
	.fpu softvfp
	.type	check_config, %function
check_config:
.LFB95:
	.loc 3 88 0
	@ args = 0, pretend = 0, frame = 8
	@ frame_needed = 0, uses_anonymous_args = 0
	@ link register save eliminated.
	sub	sp, sp, #8
.LCFI3:
	str	r0, [sp, #4]
	.loc 3 90 0
	ldr	r3, [sp, #4]
	cmp	r3, #0
	beq	.L55
	.loc 3 91 0 discriminator 1
	ldr	r2, [sp, #4]
	ldr	r3, .L57
	.loc 3 90 0 discriminator 1
	cmp	r2, r3
	bcc	.L55
	.loc 3 92 0
	ldr	r2, [sp, #4]
	ldr	r3, .L57+4
	.loc 3 91 0
	cmp	r2, r3
	bcs	.L55
	.loc 3 94 0
	movs	r3, #1
	b	.L56
.L55:
	.loc 3 97 0
	movs	r3, #0
.L56:
	.loc 3 101 0
	movs	r0, r3
	add	sp, sp, #8
	@ sp needed
	bx	lr
.L58:
	.align	2
.L57:
	.word	__start_fs_data
	.word	__stop_fs_data
.LFE95:
	.size	check_config, .-check_config
	.section	.text.store_execute,"ax",%progbits
	.align	1
	.syntax unified
	.code	16
	.thumb_func
	.fpu softvfp
	.type	store_execute, %function
store_execute:
.LFB96:
	.loc 3 106 0
	@ args = 0, pretend = 0, frame = 16
	@ frame_needed = 0, uses_anonymous_args = 0
	push	{lr}
.LCFI4:
	sub	sp, sp, #20
.LCFI5:
	str	r0, [sp, #4]
	.loc 3 109 0
	ldr	r3, [sp, #4]
	ldrh	r3, [r3, #20]
	movs	r2, r3
	ldr	r3, [sp, #4]
	ldrh	r3, [r3, #22]
	subs	r3, r2, r3
	cmp	r3, #255
	bgt	.L60
	.loc 3 111 0
	ldr	r3, [sp, #4]
	ldrh	r1, [r3, #20]
	ldr	r3, [sp, #4]
	ldrh	r2, [r3, #22]
	movs	r3, #14
	add	r3, r3, sp
	subs	r2, r1, r2
	strh	r2, [r3]
	b	.L61
.L60:
	.loc 3 115 0
	movs	r3, #14
	add	r3, r3, sp
	movs	r2, #128
	lsls	r2, r2, #1
	strh	r2, [r3]
.L61:
	.loc 3 118 0
	ldr	r3, [sp, #4]
	ldr	r2, [r3, #16]
	ldr	r3, [sp, #4]
	ldrh	r3, [r3, #22]
	lsls	r3, r3, #2
	adds	r0, r2, r3
	.loc 3 119 0
	ldr	r3, [sp, #4]
	ldr	r2, [r3, #12]
	ldr	r3, [sp, #4]
	ldrh	r3, [r3, #22]
	lsls	r3, r3, #2
	.loc 3 118 0
	adds	r1, r2, r3
	movs	r3, #14
	add	r3, r3, sp
	ldrh	r3, [r3]
	movs	r2, r3
	bl	sd_flash_write
	movs	r3, r0
	.loc 3 121 0
	movs	r0, r3
	add	sp, sp, #20
	@ sp needed
	pop	{pc}
.LFE96:
	.size	store_execute, .-store_execute
	.section	.text.erase_execute,"ax",%progbits
	.align	1
	.syntax unified
	.code	16
	.thumb_func
	.fpu softvfp
	.type	erase_execute, %function
erase_execute:
.LFB97:
	.loc 3 126 0
	@ args = 0, pretend = 0, frame = 8
	@ frame_needed = 0, uses_anonymous_args = 0
	push	{lr}
.LCFI6:
	sub	sp, sp, #12
.LCFI7:
	str	r0, [sp, #4]
	.loc 3 127 0
	ldr	r3, [sp, #4]
	ldrh	r3, [r3, #12]
	movs	r0, r3
	bl	sd_flash_page_erase
	movs	r3, r0
	.loc 3 128 0
	movs	r0, r3
	add	sp, sp, #12
	@ sp needed
	pop	{pc}
.LFE97:
	.size	erase_execute, .-erase_execute
	.section	.text.queue_advance,"ax",%progbits
	.align	1
	.syntax unified
	.code	16
	.thumb_func
	.fpu softvfp
	.type	queue_advance, %function
queue_advance:
.LFB98:
	.loc 3 134 0
	@ args = 0, pretend = 0, frame = 0
	@ frame_needed = 0, uses_anonymous_args = 0
	@ link register save eliminated.
	.loc 3 135 0
	ldr	r3, .L69
	ldr	r3, [r3, #100]
	subs	r2, r3, #1
	ldr	r3, .L69
	str	r2, [r3, #100]
	ldr	r3, .L69
	ldr	r3, [r3, #100]
	cmp	r3, #0
	bne	.L66
	.loc 3 137 0
	ldr	r3, .L69+4
	ldrb	r3, [r3]
	movs	r2, #2
	bics	r3, r2
	uxtb	r2, r3
	ldr	r3, .L69+4
	strb	r2, [r3]
.L66:
	.loc 3 140 0
	ldr	r3, .L69
	ldr	r3, [r3, #96]
	adds	r2, r3, #1
	ldr	r3, .L69
	str	r2, [r3, #96]
	ldr	r3, .L69
	ldr	r3, [r3, #96]
	cmp	r3, #4
	bne	.L68
	.loc 3 142 0
	ldr	r3, .L69
	movs	r2, #0
	str	r2, [r3, #96]
.L68:
	.loc 3 144 0
	nop
	@ sp needed
	bx	lr
.L70:
	.align	2
.L69:
	.word	m_queue
	.word	m_flags
.LFE98:
	.size	queue_advance, .-queue_advance
	.section	.text.queue_process,"ax",%progbits
	.align	1
	.syntax unified
	.code	16
	.thumb_func
	.fpu softvfp
	.type	queue_process, %function
queue_process:
.LFB99:
	.loc 3 149 0
	@ args = 0, pretend = 0, frame = 8
	@ frame_needed = 0, uses_anonymous_args = 0
	push	{lr}
.LCFI8:
	sub	sp, sp, #12
.LCFI9:
	.loc 3 151 0
	ldr	r3, .L80
	ldr	r2, [r3, #96]
	movs	r3, r2
	lsls	r3, r3, #1
	adds	r3, r3, r2
	lsls	r3, r3, #3
	ldr	r2, .L80
	adds	r3, r3, r2
	str	r3, [sp]
	.loc 3 153 0
	ldr	r3, .L80
	ldr	r3, [r3, #100]
	cmp	r3, #0
	beq	.L79
	.loc 3 155 0
	ldr	r3, [sp]
	ldrb	r3, [r3, #8]
	cmp	r3, #1
	beq	.L74
	cmp	r3, #2
	beq	.L75
	b	.L78
.L74:
	.loc 3 158 0
	ldr	r3, [sp]
	movs	r0, r3
	bl	store_execute
	movs	r3, r0
	str	r3, [sp, #4]
	.loc 3 159 0
	b	.L76
.L75:
	.loc 3 162 0
	ldr	r3, [sp]
	movs	r0, r3
	bl	erase_execute
	movs	r3, r0
	str	r3, [sp, #4]
	.loc 3 163 0
	b	.L76
.L78:
	.loc 3 166 0
	movs	r3, #9
	str	r3, [sp, #4]
	.loc 3 167 0
	nop
.L76:
	.loc 3 172 0
	ldr	r3, [sp, #4]
	cmp	r3, #17
	bne	.L77
	.loc 3 174 0
	ldr	r3, .L80+4
	ldrb	r3, [r3]
	movs	r2, #2
	bics	r3, r2
	uxtb	r2, r3
	ldr	r3, .L80+4
	strb	r2, [r3]
	.loc 3 175 0
	ldr	r3, .L80+4
	ldrb	r3, [r3]
	movs	r2, #4
	orrs	r3, r2
	uxtb	r2, r3
	ldr	r3, .L80+4
	strb	r2, [r3]
	.loc 3 187 0
	b	.L79
.L77:
	.loc 3 177 0
	ldr	r3, [sp, #4]
	cmp	r3, #0
	beq	.L79
	.loc 3 180 0
	ldr	r3, [sp]
	movs	r1, #9
	movs	r0, r3
	bl	send_event
.L79:
	.loc 3 187 0
	nop
	add	sp, sp, #12
	@ sp needed
	pop	{pc}
.L81:
	.align	2
.L80:
	.word	m_queue
	.word	m_flags
.LFE99:
	.size	queue_process, .-queue_process
	.section	.text.queue_start,"ax",%progbits
	.align	1
	.syntax unified
	.code	16
	.thumb_func
	.fpu softvfp
	.type	queue_start, %function
queue_start:
.LFB100:
	.loc 3 193 0
	@ args = 0, pretend = 0, frame = 0
	@ frame_needed = 0, uses_anonymous_args = 0
	push	{r4, lr}
.LCFI10:
	.loc 3 194 0
	ldr	r3, .L85
	ldrb	r3, [r3]
	movs	r2, r3
	movs	r3, #2
	ands	r3, r2
	bne	.L84
	.loc 3 195 0 discriminator 1
	ldr	r3, .L85
	ldrb	r3, [r3]
	movs	r2, r3
	movs	r3, #4
	ands	r3, r2
	.loc 3 194 0 discriminator 1
	bne	.L84
	.loc 3 197 0
	ldr	r3, .L85
	ldrb	r3, [r3]
	movs	r2, #2
	orrs	r3, r2
	uxtb	r2, r3
	ldr	r3, .L85
	strb	r2, [r3]
	.loc 3 198 0
	bl	queue_process
.L84:
	.loc 3 200 0
	nop
	@ sp needed
	pop	{r4, pc}
.L86:
	.align	2
.L85:
	.word	m_flags
.LFE100:
	.size	queue_start, .-queue_start
	.section	.text.on_operation_success,"ax",%progbits
	.align	1
	.syntax unified
	.code	16
	.thumb_func
	.fpu softvfp
	.type	on_operation_success, %function
on_operation_success:
.LFB101:
	.loc 3 206 0
	@ args = 0, pretend = 0, frame = 16
	@ frame_needed = 0, uses_anonymous_args = 0
	push	{lr}
.LCFI11:
	sub	sp, sp, #20
.LCFI12:
	str	r0, [sp, #4]
	.loc 3 207 0
	ldr	r3, .L98
	movs	r2, #0
	strb	r2, [r3]
	.loc 3 209 0
	ldr	r3, [sp, #4]
	ldrb	r3, [r3, #8]
	cmp	r3, #1
	beq	.L89
	cmp	r3, #2
	beq	.L90
	.loc 3 250 0
	b	.L94
.L89:
.LBB2:
	.loc 3 215 0
	ldr	r3, [sp, #4]
	ldrh	r3, [r3, #20]
	movs	r2, r3
	ldr	r3, [sp, #4]
	ldrh	r3, [r3, #22]
	subs	r3, r2, r3
	cmp	r3, #255
	bgt	.L91
	.loc 3 217 0
	ldr	r3, [sp, #4]
	ldrh	r1, [r3, #20]
	ldr	r3, [sp, #4]
	ldrh	r2, [r3, #22]
	movs	r3, #14
	add	r3, r3, sp
	subs	r2, r1, r2
	strh	r2, [r3]
	b	.L92
.L91:
	.loc 3 221 0
	movs	r3, #14
	add	r3, r3, sp
	movs	r2, #128
	lsls	r2, r2, #1
	strh	r2, [r3]
.L92:
	.loc 3 224 0
	ldr	r3, [sp, #4]
	ldrh	r2, [r3, #22]
	movs	r3, #14
	add	r3, r3, sp
	ldrh	r3, [r3]
	adds	r3, r2, r3
	uxth	r2, r3
	ldr	r3, [sp, #4]
	strh	r2, [r3, #22]
	.loc 3 226 0
	ldr	r3, [sp, #4]
	ldrh	r2, [r3, #22]
	ldr	r3, [sp, #4]
	ldrh	r3, [r3, #20]
	cmp	r2, r3
	bne	.L96
	.loc 3 229 0
	ldr	r3, [sp, #4]
	movs	r1, #0
	movs	r0, r3
	bl	send_event
	.loc 3 230 0
	bl	queue_advance
.LBE2:
	.loc 3 233 0
	b	.L96
.L90:
	.loc 3 237 0
	ldr	r3, [sp, #4]
	ldrh	r3, [r3, #12]
	adds	r3, r3, #1
	uxth	r2, r3
	ldr	r3, [sp, #4]
	strh	r2, [r3, #12]
	.loc 3 238 0
	ldr	r3, [sp, #4]
	ldrh	r3, [r3, #14]
	adds	r3, r3, #1
	uxth	r2, r3
	ldr	r3, [sp, #4]
	strh	r2, [r3, #14]
	.loc 3 240 0
	ldr	r3, [sp, #4]
	ldrh	r2, [r3, #14]
	ldr	r3, [sp, #4]
	ldrh	r3, [r3, #16]
	cmp	r2, r3
	bne	.L97
	.loc 3 242 0
	ldr	r3, [sp, #4]
	movs	r1, #0
	movs	r0, r3
	bl	send_event
	.loc 3 243 0
	bl	queue_advance
	.loc 3 246 0
	b	.L97
.L96:
	.loc 3 233 0
	nop
	b	.L94
.L97:
	.loc 3 246 0
	nop
.L94:
	.loc 3 252 0
	nop
	add	sp, sp, #20
	@ sp needed
	pop	{pc}
.L99:
	.align	2
.L98:
	.word	m_retry_count
.LFE101:
	.size	on_operation_success, .-on_operation_success
	.section	.text.on_operation_failure,"ax",%progbits
	.align	1
	.syntax unified
	.code	16
	.thumb_func
	.fpu softvfp
	.type	on_operation_failure, %function
on_operation_failure:
.LFB102:
	.loc 3 258 0
	@ args = 0, pretend = 0, frame = 8
	@ frame_needed = 0, uses_anonymous_args = 0
	push	{lr}
.LCFI13:
	sub	sp, sp, #12
.LCFI14:
	str	r0, [sp, #4]
	.loc 3 259 0
	ldr	r3, .L103
	ldrb	r3, [r3]
	adds	r3, r3, #1
	uxtb	r2, r3
	ldr	r3, .L103
	strb	r2, [r3]
	ldr	r3, .L103
	ldrb	r3, [r3]
	cmp	r3, #3
	bls	.L102
	.loc 3 261 0
	ldr	r3, .L103
	movs	r2, #0
	strb	r2, [r3]
	.loc 3 263 0
	ldr	r3, [sp, #4]
	movs	r1, #8
	movs	r0, r3
	bl	send_event
	.loc 3 264 0
	bl	queue_advance
.L102:
	.loc 3 266 0
	nop
	add	sp, sp, #12
	@ sp needed
	pop	{pc}
.L104:
	.align	2
.L103:
	.word	m_retry_count
.LFE102:
	.size	on_operation_failure, .-on_operation_failure
	.section	.text.queue_get_next_free,"ax",%progbits
	.align	1
	.syntax unified
	.code	16
	.thumb_func
	.fpu softvfp
	.type	queue_get_next_free, %function
queue_get_next_free:
.LFB103:
	.loc 3 272 0
	@ args = 0, pretend = 0, frame = 16
	@ frame_needed = 0, uses_anonymous_args = 0
	push	{lr}
.LCFI15:
	sub	sp, sp, #20
.LCFI16:
	str	r0, [sp, #4]
	.loc 3 275 0
	ldr	r3, .L110
	ldr	r3, [r3, #100]
	cmp	r3, #4
	bne	.L106
	.loc 3 277 0
	movs	r3, #0
	b	.L107
.L106:
	.loc 3 280 0
	ldr	r3, .L110
	ldr	r2, [r3, #96]
	ldr	r3, .L110
	ldr	r3, [r3, #100]
	adds	r3, r2, r3
	.loc 3 281 0
	cmp	r3, #3
	bhi	.L108
	.loc 3 281 0 is_stmt 0 discriminator 1
	ldr	r3, .L110
	ldr	r2, [r3, #96]
	ldr	r3, .L110
	ldr	r3, [r3, #100]
	adds	r3, r2, r3
	b	.L109
.L108:
	.loc 3 281 0 discriminator 2
	ldr	r3, .L110
	ldr	r2, [r3, #96]
	ldr	r3, .L110
	ldr	r3, [r3, #100]
	adds	r3, r2, r3
	subs	r3, r3, #4
.L109:
	.loc 3 280 0 is_stmt 1
	str	r3, [sp, #12]
	.loc 3 283 0
	ldr	r3, .L110
	ldr	r3, [r3, #100]
	adds	r2, r3, #1
	ldr	r3, .L110
	str	r2, [r3, #100]
	.loc 3 286 0
	ldr	r2, [sp, #12]
	movs	r3, r2
	lsls	r3, r3, #1
	adds	r3, r3, r2
	lsls	r3, r3, #3
	ldr	r2, .L110
	adds	r3, r3, r2
	movs	r2, #24
	movs	r1, #0
	movs	r0, r3
	bl	memset
	.loc 3 288 0
	ldr	r2, [sp, #12]
	movs	r3, r2
	lsls	r3, r3, #1
	adds	r3, r3, r2
	lsls	r3, r3, #3
	ldr	r2, .L110
	adds	r2, r3, r2
	ldr	r3, [sp, #4]
	str	r2, [r3]
	.loc 3 290 0
	movs	r3, #1
.L107:
	.loc 3 291 0
	movs	r0, r3
	add	sp, sp, #20
	@ sp needed
	pop	{pc}
.L111:
	.align	2
.L110:
	.word	m_queue
.LFE103:
	.size	queue_get_next_free, .-queue_get_next_free
	.section	.text.fs_init,"ax",%progbits
	.align	1
	.global	fs_init
	.syntax unified
	.code	16
	.thumb_func
	.fpu softvfp
	.type	fs_init, %function
fs_init:
.LFB104:
	.loc 3 295 0
	@ args = 0, pretend = 0, frame = 40
	@ frame_needed = 0, uses_anonymous_args = 0
	push	{lr}
.LCFI17:
	sub	sp, sp, #44
.LCFI18:
	.loc 3 296 0
	ldr	r2, .L125
	ldr	r3, .L125+4
	subs	r3, r2, r3
	lsrs	r3, r3, #4
	str	r3, [sp, #12]
	.loc 3 297 0
	ldr	r2, .L125
	ldr	r3, .L125+4
	subs	r3, r2, r3
	lsrs	r3, r3, #4
	str	r3, [sp, #36]
	.loc 3 298 0
	bl	fs_flash_page_end_addr
	movs	r3, r0
	str	r3, [sp, #32]
	.loc 3 300 0
	ldr	r3, .L125+8
	ldrb	r3, [r3]
	movs	r2, r3
	movs	r3, #1
	ands	r3, r2
	beq	.L113
	.loc 3 302 0
	movs	r3, #0
	b	.L114
.L113:
.LBB3:
	.loc 3 314 0
	movs	r3, #0
	str	r3, [sp, #28]
	b	.L115
.L117:
.LBB4:
	.loc 3 316 0
	ldr	r3, [sp, #28]
	lsls	r2, r3, #4
	ldr	r3, .L125+4
	adds	r3, r2, r3
	str	r3, [sp, #8]
	.loc 3 318 0
	ldr	r3, [sp, #8]
	ldr	r3, [r3]
	cmp	r3, #0
	beq	.L116
	.loc 3 319 0 discriminator 1
	ldr	r3, [sp, #8]
	ldr	r3, [r3, #4]
	.loc 3 318 0 discriminator 1
	cmp	r3, #0
	beq	.L116
	.loc 3 321 0
	ldr	r3, [sp, #36]
	subs	r3, r3, #1
	str	r3, [sp, #36]
.L116:
.LBE4:
	.loc 3 314 0 discriminator 2
	ldr	r3, [sp, #28]
	adds	r3, r3, #1
	str	r3, [sp, #28]
.L115:
	.loc 3 314 0 is_stmt 0 discriminator 1
	ldr	r2, [sp, #28]
	ldr	r3, [sp, #12]
	cmp	r2, r3
	bcc	.L117
.LBE3:
.LBB5:
	.loc 3 328 0 is_stmt 1
	movs	r3, #0
	str	r3, [sp, #24]
	b	.L118
.L123:
.LBB6:
	.loc 3 330 0
	ldr	r3, [sp, #24]
	lsls	r2, r3, #4
	ldr	r3, .L125+4
	adds	r3, r2, r3
	str	r3, [sp, #4]
	.loc 3 331 0
	movs	r3, #23
	add	r3, r3, sp
	movs	r2, #0
	strb	r2, [r3]
	.loc 3 332 0
	movs	r3, #22
	add	r3, r3, sp
	ldr	r2, [sp, #24]
	strb	r2, [r3]
.LBB7:
	.loc 3 334 0
	movs	r3, #0
	str	r3, [sp, #16]
	b	.L119
.L122:
.LBB8:
	.loc 3 336 0
	ldr	r3, [sp, #16]
	lsls	r2, r3, #4
	ldr	r3, .L125+4
	adds	r3, r2, r3
	str	r3, [sp]
	.loc 3 346 0
	ldr	r3, [sp]
	ldr	r3, [r3]
	cmp	r3, #0
	beq	.L120
	.loc 3 347 0 discriminator 1
	ldr	r3, [sp]
	ldr	r3, [r3, #4]
	.loc 3 346 0 discriminator 1
	cmp	r3, #0
	bne	.L124
.L120:
	.loc 3 356 0
	ldr	r3, [sp]
	ldrb	r3, [r3, #13]
	movs	r2, #23
	add	r2, r2, sp
	ldrb	r2, [r2]
	cmp	r2, r3
	bcs	.L121
	.loc 3 358 0
	movs	r3, #23
	add	r3, r3, sp
	ldr	r2, [sp]
	ldrb	r2, [r2, #13]
	strb	r2, [r3]
	.loc 3 359 0
	movs	r3, #22
	add	r3, r3, sp
	ldr	r2, [sp, #16]
	strb	r2, [r3]
	b	.L121
.L124:
	.loc 3 353 0
	nop
.L121:
.LBE8:
	.loc 3 334 0 discriminator 2
	ldr	r3, [sp, #16]
	adds	r3, r3, #1
	str	r3, [sp, #16]
.L119:
	.loc 3 334 0 is_stmt 0 discriminator 1
	ldr	r2, [sp, #16]
	ldr	r3, [sp, #12]
	cmp	r2, r3
	bcc	.L122
.LBE7:
	.loc 3 363 0 is_stmt 1 discriminator 2
	movs	r3, #22
	add	r3, r3, sp
	ldrb	r3, [r3]
	lsls	r2, r3, #4
	ldr	r3, .L125+4
	adds	r3, r2, r3
	str	r3, [sp, #4]
	.loc 3 365 0 discriminator 2
	ldr	r3, [sp, #4]
	ldr	r2, [sp, #32]
	str	r2, [r3, #4]
	.loc 3 366 0 discriminator 2
	ldr	r3, [sp, #4]
	ldrb	r3, [r3, #12]
	lsls	r3, r3, #10
	rsbs	r3, r3, #0
	ldr	r2, [sp, #32]
	adds	r2, r2, r3
	ldr	r3, [sp, #4]
	str	r2, [r3]
	.loc 3 368 0 discriminator 2
	ldr	r3, [sp, #4]
	ldr	r3, [r3]
	str	r3, [sp, #32]
.LBE6:
	.loc 3 328 0 discriminator 2
	ldr	r3, [sp, #24]
	adds	r3, r3, #1
	str	r3, [sp, #24]
.L118:
	.loc 3 328 0 is_stmt 0 discriminator 1
	ldr	r2, [sp, #24]
	ldr	r3, [sp, #36]
	cmp	r2, r3
	bcc	.L123
.LBE5:
	.loc 3 371 0 is_stmt 1
	ldr	r3, .L125+8
	ldrb	r3, [r3]
	movs	r2, #1
	orrs	r3, r2
	uxtb	r2, r3
	ldr	r3, .L125+8
	strb	r2, [r3]
	.loc 3 373 0
	movs	r3, #0
.L114:
	.loc 3 374 0
	movs	r0, r3
	add	sp, sp, #44
	@ sp needed
	pop	{pc}
.L126:
	.align	2
.L125:
	.word	__stop_fs_data
	.word	__start_fs_data
	.word	m_flags
.LFE104:
	.size	fs_init, .-fs_init
	.section	.text.fs_fake_init,"ax",%progbits
	.align	1
	.global	fs_fake_init
	.syntax unified
	.code	16
	.thumb_func
	.fpu softvfp
	.type	fs_fake_init, %function
fs_fake_init:
.LFB105:
	.loc 3 378 0
	@ args = 0, pretend = 0, frame = 0
	@ frame_needed = 0, uses_anonymous_args = 0
	@ link register save eliminated.
	.loc 3 379 0
	ldr	r3, .L129
	ldrb	r3, [r3]
	movs	r2, #1
	orrs	r3, r2
	uxtb	r2, r3
	ldr	r3, .L129
	strb	r2, [r3]
	.loc 3 380 0
	movs	r3, #0
	.loc 3 381 0
	movs	r0, r3
	@ sp needed
	bx	lr
.L130:
	.align	2
.L129:
	.word	m_flags
.LFE105:
	.size	fs_fake_init, .-fs_fake_init
	.section	.text.fs_store,"ax",%progbits
	.align	1
	.global	fs_store
	.syntax unified
	.code	16
	.thumb_func
	.fpu softvfp
	.type	fs_store, %function
fs_store:
.LFB106:
	.loc 3 389 0
	@ args = 4, pretend = 0, frame = 24
	@ frame_needed = 0, uses_anonymous_args = 0
	push	{lr}
.LCFI19:
	sub	sp, sp, #28
.LCFI20:
	str	r0, [sp, #12]
	str	r1, [sp, #8]
	str	r2, [sp, #4]
	movs	r2, r3
	mov	r3, sp
	adds	r3, r3, #2
	strh	r2, [r3]
	.loc 3 392 0
	ldr	r3, .L144
	ldrb	r3, [r3]
	movs	r2, r3
	movs	r3, #1
	ands	r3, r2
	bne	.L132
	.loc 3 394 0
	movs	r3, #1
	b	.L143
.L132:
	.loc 3 397 0
	ldr	r3, [sp, #12]
	movs	r0, r3
	bl	check_config
	movs	r3, r0
	movs	r2, r3
	movs	r3, #1
	eors	r3, r2
	uxtb	r3, r3
	cmp	r3, #0
	beq	.L134
	.loc 3 399 0
	movs	r3, #2
	b	.L143
.L134:
	.loc 3 402 0
	ldr	r3, [sp, #4]
	cmp	r3, #0
	beq	.L135
	.loc 3 402 0 is_stmt 0 discriminator 1
	ldr	r3, [sp, #8]
	cmp	r3, #0
	bne	.L136
.L135:
	.loc 3 404 0 is_stmt 1
	movs	r3, #3
	b	.L143
.L136:
	.loc 3 408 0
	ldr	r3, [sp, #4]
	movs	r2, #3
	ands	r3, r2
	bne	.L137
	.loc 3 409 0 discriminator 1
	ldr	r3, [sp, #8]
	movs	r2, #3
	ands	r3, r2
	.loc 3 408 0 discriminator 1
	beq	.L138
.L137:
	.loc 3 411 0
	movs	r3, #6
	b	.L143
.L138:
	.loc 3 415 0
	ldr	r3, [sp, #12]
	ldr	r2, [r3]
	ldr	r3, [sp, #8]
	cmp	r2, r3
	bhi	.L139
	.loc 3 416 0 discriminator 1
	ldr	r3, [sp, #12]
	ldr	r2, [r3, #4]
	mov	r3, sp
	adds	r3, r3, #2
	ldrh	r3, [r3]
	lsls	r3, r3, #2
	ldr	r1, [sp, #8]
	adds	r3, r1, r3
	.loc 3 415 0 discriminator 1
	cmp	r2, r3
	bcs	.L140
.L139:
	.loc 3 418 0
	movs	r3, #5
	b	.L143
.L140:
	.loc 3 421 0
	mov	r3, sp
	adds	r3, r3, #2
	ldrh	r3, [r3]
	cmp	r3, #0
	bne	.L141
	.loc 3 423 0
	movs	r3, #4
	b	.L143
.L141:
	.loc 3 426 0
	add	r3, sp, #20
	movs	r0, r3
	bl	queue_get_next_free
	movs	r3, r0
	movs	r2, r3
	movs	r3, #1
	eors	r3, r2
	uxtb	r3, r3
	cmp	r3, #0
	beq	.L142
	.loc 3 428 0
	movs	r3, #7
	b	.L143
.L142:
	.loc 3 432 0
	ldr	r3, [sp, #20]
	ldr	r2, [sp, #32]
	str	r2, [r3, #4]
	.loc 3 433 0
	ldr	r3, [sp, #20]
	ldr	r2, [sp, #12]
	str	r2, [r3]
	.loc 3 434 0
	ldr	r3, [sp, #20]
	movs	r2, #1
	strb	r2, [r3, #8]
	.loc 3 435 0
	ldr	r3, [sp, #20]
	ldr	r2, [sp, #4]
	str	r2, [r3, #12]
	.loc 3 436 0
	ldr	r3, [sp, #20]
	ldr	r2, [sp, #8]
	str	r2, [r3, #16]
	.loc 3 437 0
	ldr	r3, [sp, #20]
	mov	r2, sp
	adds	r2, r2, #2
	ldrh	r2, [r2]
	strh	r2, [r3, #20]
	.loc 3 439 0
	bl	queue_start
	.loc 3 441 0
	movs	r3, #0
.L143:
	.loc 3 442 0 discriminator 1
	movs	r0, r3
	add	sp, sp, #28
	@ sp needed
	pop	{pc}
.L145:
	.align	2
.L144:
	.word	m_flags
.LFE106:
	.size	fs_store, .-fs_store
	.section	.text.fs_erase,"ax",%progbits
	.align	1
	.global	fs_erase
	.syntax unified
	.code	16
	.thumb_func
	.fpu softvfp
	.type	fs_erase, %function
fs_erase:
.LFB107:
	.loc 3 449 0
	@ args = 0, pretend = 0, frame = 24
	@ frame_needed = 0, uses_anonymous_args = 0
	push	{lr}
.LCFI21:
	sub	sp, sp, #28
.LCFI22:
	str	r0, [sp, #12]
	str	r1, [sp, #8]
	str	r3, [sp]
	mov	r3, sp
	adds	r3, r3, #6
	strh	r2, [r3]
	.loc 3 452 0
	ldr	r3, .L157
	ldrb	r3, [r3]
	movs	r2, r3
	movs	r3, #1
	ands	r3, r2
	bne	.L147
	.loc 3 454 0
	movs	r3, #1
	b	.L156
.L147:
	.loc 3 457 0
	ldr	r3, [sp, #12]
	movs	r0, r3
	bl	check_config
	movs	r3, r0
	movs	r2, r3
	movs	r3, #1
	eors	r3, r2
	uxtb	r3, r3
	cmp	r3, #0
	beq	.L149
	.loc 3 459 0
	movs	r3, #2
	b	.L156
.L149:
	.loc 3 462 0
	ldr	r3, [sp, #8]
	cmp	r3, #0
	bne	.L150
	.loc 3 464 0
	movs	r3, #3
	b	.L156
.L150:
	.loc 3 468 0
	ldr	r3, [sp, #8]
	lsls	r3, r3, #22
	lsrs	r3, r3, #22
	beq	.L151
	.loc 3 470 0
	movs	r3, #6
	b	.L156
.L151:
	.loc 3 474 0
	ldr	r3, [sp, #12]
	ldr	r2, [r3]
	ldr	r3, [sp, #8]
	cmp	r2, r3
	bhi	.L152
	.loc 3 475 0 discriminator 1
	mov	r3, sp
	adds	r3, r3, #6
	ldrh	r3, [r3]
	lsls	r3, r3, #10
	ldr	r2, [sp, #8]
	adds	r2, r2, r3
	ldr	r3, [sp, #12]
	ldr	r3, [r3, #4]
	.loc 3 474 0 discriminator 1
	cmp	r2, r3
	bls	.L153
.L152:
	.loc 3 477 0
	movs	r3, #5
	b	.L156
.L153:
	.loc 3 480 0
	mov	r3, sp
	adds	r3, r3, #6
	ldrh	r3, [r3]
	cmp	r3, #0
	bne	.L154
	.loc 3 482 0
	movs	r3, #4
	b	.L156
.L154:
	.loc 3 485 0
	add	r3, sp, #20
	movs	r0, r3
	bl	queue_get_next_free
	movs	r3, r0
	movs	r2, r3
	movs	r3, #1
	eors	r3, r2
	uxtb	r3, r3
	cmp	r3, #0
	beq	.L155
	.loc 3 487 0
	movs	r3, #7
	b	.L156
.L155:
	.loc 3 491 0
	ldr	r3, [sp, #20]
	ldr	r2, [sp]
	str	r2, [r3, #4]
	.loc 3 492 0
	ldr	r3, [sp, #20]
	ldr	r2, [sp, #12]
	str	r2, [r3]
	.loc 3 493 0
	ldr	r3, [sp, #20]
	movs	r2, #2
	strb	r2, [r3, #8]
	.loc 3 494 0
	ldr	r3, [sp, #20]
	ldr	r2, [sp, #8]
	lsrs	r2, r2, #10
	uxth	r2, r2
	strh	r2, [r3, #12]
	.loc 3 495 0
	ldr	r3, [sp, #20]
	mov	r2, sp
	adds	r2, r2, #6
	ldrh	r2, [r2]
	strh	r2, [r3, #16]
	.loc 3 497 0
	bl	queue_start
	.loc 3 499 0
	movs	r3, #0
.L156:
	.loc 3 500 0 discriminator 1
	movs	r0, r3
	add	sp, sp, #28
	@ sp needed
	pop	{pc}
.L158:
	.align	2
.L157:
	.word	m_flags
.LFE107:
	.size	fs_erase, .-fs_erase
	.section	.text.fs_queued_op_count_get,"ax",%progbits
	.align	1
	.global	fs_queued_op_count_get
	.syntax unified
	.code	16
	.thumb_func
	.fpu softvfp
	.type	fs_queued_op_count_get, %function
fs_queued_op_count_get:
.LFB108:
	.loc 3 504 0
	@ args = 0, pretend = 0, frame = 8
	@ frame_needed = 0, uses_anonymous_args = 0
	@ link register save eliminated.
	sub	sp, sp, #8
.LCFI23:
	str	r0, [sp, #4]
	.loc 3 505 0
	ldr	r3, [sp, #4]
	cmp	r3, #0
	bne	.L160
	.loc 3 507 0
	movs	r3, #3
	b	.L161
.L160:
	.loc 3 510 0
	ldr	r3, .L162
	ldr	r2, [r3, #100]
	ldr	r3, [sp, #4]
	str	r2, [r3]
	.loc 3 512 0
	movs	r3, #0
.L161:
	.loc 3 513 0
	movs	r0, r3
	add	sp, sp, #8
	@ sp needed
	bx	lr
.L163:
	.align	2
.L162:
	.word	m_queue
.LFE108:
	.size	fs_queued_op_count_get, .-fs_queued_op_count_get
	.section	.text.fs_sys_event_handler,"ax",%progbits
	.align	1
	.global	fs_sys_event_handler
	.syntax unified
	.code	16
	.thumb_func
	.fpu softvfp
	.type	fs_sys_event_handler, %function
fs_sys_event_handler:
.LFB109:
	.loc 3 517 0
	@ args = 0, pretend = 0, frame = 16
	@ frame_needed = 0, uses_anonymous_args = 0
	push	{lr}
.LCFI24:
	sub	sp, sp, #20
.LCFI25:
	str	r0, [sp, #4]
	.loc 3 518 0
	ldr	r3, .L170
	ldr	r2, [r3, #96]
	movs	r3, r2
	lsls	r3, r3, #1
	adds	r3, r3, r2
	lsls	r3, r3, #3
	ldr	r2, .L170
	adds	r3, r3, r2
	str	r3, [sp, #12]
	.loc 3 520 0
	ldr	r3, .L170+4
	ldrb	r3, [r3]
	movs	r2, r3
	movs	r3, #2
	ands	r3, r2
	beq	.L165
	.loc 3 523 0
	ldr	r3, [sp, #4]
	cmp	r3, #2
	beq	.L167
	cmp	r3, #3
	beq	.L168
	b	.L169
.L167:
	.loc 3 526 0
	ldr	r3, [sp, #12]
	movs	r0, r3
	bl	on_operation_success
	.loc 3 527 0
	b	.L169
.L168:
	.loc 3 530 0
	ldr	r3, [sp, #12]
	movs	r0, r3
	bl	on_operation_failure
	.loc 3 531 0
	nop
	b	.L169
.L165:
	.loc 3 534 0
	ldr	r3, .L170+4
	ldrb	r3, [r3]
	movs	r2, r3
	movs	r3, #4
	ands	r3, r2
	beq	.L169
	.loc 3 538 0
	ldr	r3, .L170+4
	ldrb	r3, [r3]
	movs	r2, #4
	bics	r3, r2
	uxtb	r2, r3
	ldr	r3, .L170+4
	strb	r2, [r3]
	.loc 3 541 0
	ldr	r3, .L170
	ldr	r3, [r3, #100]
	cmp	r3, #0
	beq	.L169
	.loc 3 543 0
	ldr	r3, .L170+4
	ldrb	r3, [r3]
	movs	r2, #2
	orrs	r3, r2
	uxtb	r2, r3
	ldr	r3, .L170+4
	strb	r2, [r3]
.L169:
	.loc 3 548 0
	bl	queue_process
	.loc 3 549 0
	nop
	add	sp, sp, #20
	@ sp needed
	pop	{pc}
.L171:
	.align	2
.L170:
	.word	m_queue
	.word	m_flags
.LFE109:
	.size	fs_sys_event_handler, .-fs_sys_event_handler
	.section	.text.fs_queue_is_full,"ax",%progbits
	.align	1
	.global	fs_queue_is_full
	.syntax unified
	.code	16
	.thumb_func
	.fpu softvfp
	.type	fs_queue_is_full, %function
fs_queue_is_full:
.LFB110:
	.loc 3 552 0
	@ args = 0, pretend = 0, frame = 0
	@ frame_needed = 0, uses_anonymous_args = 0
	@ link register save eliminated.
	.loc 3 553 0
	ldr	r3, .L174
	ldr	r3, [r3, #100]
	subs	r3, r3, #4
	rsbs	r2, r3, #0
	adcs	r3, r3, r2
	uxtb	r3, r3
	.loc 3 554 0
	movs	r0, r3
	@ sp needed
	bx	lr
.L175:
	.align	2
.L174:
	.word	m_queue
.LFE110:
	.size	fs_queue_is_full, .-fs_queue_is_full
	.section	.text.fs_queue_is_empty,"ax",%progbits
	.align	1
	.global	fs_queue_is_empty
	.syntax unified
	.code	16
	.thumb_func
	.fpu softvfp
	.type	fs_queue_is_empty, %function
fs_queue_is_empty:
.LFB111:
	.loc 3 557 0
	@ args = 0, pretend = 0, frame = 0
	@ frame_needed = 0, uses_anonymous_args = 0
	@ link register save eliminated.
	.loc 3 558 0
	ldr	r3, .L178
	ldr	r3, [r3, #100]
	rsbs	r2, r3, #0
	adcs	r3, r3, r2
	uxtb	r3, r3
	.loc 3 559 0
	movs	r0, r3
	@ sp needed
	bx	lr
.L179:
	.align	2
.L178:
	.word	m_queue
.LFE111:
	.size	fs_queue_is_empty, .-fs_queue_is_empty
	.section	.debug_frame,"",%progbits
.Lframe0:
	.4byte	.LECIE0-.LSCIE0
.LSCIE0:
	.4byte	0xffffffff
	.byte	0x3
	.ascii	"\000"
	.uleb128 0x1
	.sleb128 -4
	.uleb128 0xe
	.byte	0xc
	.uleb128 0xd
	.uleb128 0
	.align	2
.LECIE0:
.LSFDE0:
	.4byte	.LEFDE0-.LASFDE0
.LASFDE0:
	.4byte	.Lframe0
	.4byte	.LFB51
	.4byte	.LFE51-.LFB51
	.byte	0x4
	.4byte	.LCFI0-.LFB51
	.byte	0xe
	.uleb128 0x8
	.align	2
.LEFDE0:
.LSFDE2:
	.4byte	.LEFDE2-.LASFDE2
.LASFDE2:
	.4byte	.Lframe0
	.4byte	.LFB52
	.4byte	.LFE52-.LFB52
	.align	2
.LEFDE2:
.LSFDE4:
	.4byte	.LEFDE4-.LASFDE4
.LASFDE4:
	.4byte	.Lframe0
	.4byte	.LFB53
	.4byte	.LFE53-.LFB53
	.align	2
.LEFDE4:
.LSFDE6:
	.4byte	.LEFDE6-.LASFDE6
.LASFDE6:
	.4byte	.Lframe0
	.4byte	.LFB54
	.4byte	.LFE54-.LFB54
	.align	2
.LEFDE6:
.LSFDE8:
	.4byte	.LEFDE8-.LASFDE8
.LASFDE8:
	.4byte	.Lframe0
	.4byte	.LFB55
	.4byte	.LFE55-.LFB55
	.align	2
.LEFDE8:
.LSFDE10:
	.4byte	.LEFDE10-.LASFDE10
.LASFDE10:
	.4byte	.Lframe0
	.4byte	.LFB56
	.4byte	.LFE56-.LFB56
	.align	2
.LEFDE10:
.LSFDE12:
	.4byte	.LEFDE12-.LASFDE12
.LASFDE12:
	.4byte	.Lframe0
	.4byte	.LFB57
	.4byte	.LFE57-.LFB57
	.align	2
.LEFDE12:
.LSFDE14:
	.4byte	.LEFDE14-.LASFDE14
.LASFDE14:
	.4byte	.Lframe0
	.4byte	.LFB58
	.4byte	.LFE58-.LFB58
	.align	2
.LEFDE14:
.LSFDE16:
	.4byte	.LEFDE16-.LASFDE16
.LASFDE16:
	.4byte	.Lframe0
	.4byte	.LFB59
	.4byte	.LFE59-.LFB59
	.align	2
.LEFDE16:
.LSFDE18:
	.4byte	.LEFDE18-.LASFDE18
.LASFDE18:
	.4byte	.Lframe0
	.4byte	.LFB60
	.4byte	.LFE60-.LFB60
	.align	2
.LEFDE18:
.LSFDE20:
	.4byte	.LEFDE20-.LASFDE20
.LASFDE20:
	.4byte	.Lframe0
	.4byte	.LFB61
	.4byte	.LFE61-.LFB61
	.align	2
.LEFDE20:
.LSFDE22:
	.4byte	.LEFDE22-.LASFDE22
.LASFDE22:
	.4byte	.Lframe0
	.4byte	.LFB62
	.4byte	.LFE62-.LFB62
	.align	2
.LEFDE22:
.LSFDE24:
	.4byte	.LEFDE24-.LASFDE24
.LASFDE24:
	.4byte	.Lframe0
	.4byte	.LFB63
	.4byte	.LFE63-.LFB63
	.align	2
.LEFDE24:
.LSFDE26:
	.4byte	.LEFDE26-.LASFDE26
.LASFDE26:
	.4byte	.Lframe0
	.4byte	.LFB64
	.4byte	.LFE64-.LFB64
	.align	2
.LEFDE26:
.LSFDE28:
	.4byte	.LEFDE28-.LASFDE28
.LASFDE28:
	.4byte	.Lframe0
	.4byte	.LFB65
	.4byte	.LFE65-.LFB65
	.align	2
.LEFDE28:
.LSFDE30:
	.4byte	.LEFDE30-.LASFDE30
.LASFDE30:
	.4byte	.Lframe0
	.4byte	.LFB66
	.4byte	.LFE66-.LFB66
	.align	2
.LEFDE30:
.LSFDE32:
	.4byte	.LEFDE32-.LASFDE32
.LASFDE32:
	.4byte	.Lframe0
	.4byte	.LFB67
	.4byte	.LFE67-.LFB67
	.align	2
.LEFDE32:
.LSFDE34:
	.4byte	.LEFDE34-.LASFDE34
.LASFDE34:
	.4byte	.Lframe0
	.4byte	.LFB68
	.4byte	.LFE68-.LFB68
	.align	2
.LEFDE34:
.LSFDE36:
	.4byte	.LEFDE36-.LASFDE36
.LASFDE36:
	.4byte	.Lframe0
	.4byte	.LFB69
	.4byte	.LFE69-.LFB69
	.align	2
.LEFDE36:
.LSFDE38:
	.4byte	.LEFDE38-.LASFDE38
.LASFDE38:
	.4byte	.Lframe0
	.4byte	.LFB70
	.4byte	.LFE70-.LFB70
	.align	2
.LEFDE38:
.LSFDE40:
	.4byte	.LEFDE40-.LASFDE40
.LASFDE40:
	.4byte	.Lframe0
	.4byte	.LFB71
	.4byte	.LFE71-.LFB71
	.align	2
.LEFDE40:
.LSFDE42:
	.4byte	.LEFDE42-.LASFDE42
.LASFDE42:
	.4byte	.Lframe0
	.4byte	.LFB72
	.4byte	.LFE72-.LFB72
	.align	2
.LEFDE42:
.LSFDE44:
	.4byte	.LEFDE44-.LASFDE44
.LASFDE44:
	.4byte	.Lframe0
	.4byte	.LFB73
	.4byte	.LFE73-.LFB73
	.align	2
.LEFDE44:
.LSFDE46:
	.4byte	.LEFDE46-.LASFDE46
.LASFDE46:
	.4byte	.Lframe0
	.4byte	.LFB74
	.4byte	.LFE74-.LFB74
	.align	2
.LEFDE46:
.LSFDE48:
	.4byte	.LEFDE48-.LASFDE48
.LASFDE48:
	.4byte	.Lframe0
	.4byte	.LFB75
	.4byte	.LFE75-.LFB75
	.align	2
.LEFDE48:
.LSFDE50:
	.4byte	.LEFDE50-.LASFDE50
.LASFDE50:
	.4byte	.Lframe0
	.4byte	.LFB76
	.4byte	.LFE76-.LFB76
	.align	2
.LEFDE50:
.LSFDE52:
	.4byte	.LEFDE52-.LASFDE52
.LASFDE52:
	.4byte	.Lframe0
	.4byte	.LFB77
	.4byte	.LFE77-.LFB77
	.align	2
.LEFDE52:
.LSFDE54:
	.4byte	.LEFDE54-.LASFDE54
.LASFDE54:
	.4byte	.Lframe0
	.4byte	.LFB78
	.4byte	.LFE78-.LFB78
	.align	2
.LEFDE54:
.LSFDE56:
	.4byte	.LEFDE56-.LASFDE56
.LASFDE56:
	.4byte	.Lframe0
	.4byte	.LFB79
	.4byte	.LFE79-.LFB79
	.align	2
.LEFDE56:
.LSFDE58:
	.4byte	.LEFDE58-.LASFDE58
.LASFDE58:
	.4byte	.Lframe0
	.4byte	.LFB80
	.4byte	.LFE80-.LFB80
	.align	2
.LEFDE58:
.LSFDE60:
	.4byte	.LEFDE60-.LASFDE60
.LASFDE60:
	.4byte	.Lframe0
	.4byte	.LFB81
	.4byte	.LFE81-.LFB81
	.align	2
.LEFDE60:
.LSFDE62:
	.4byte	.LEFDE62-.LASFDE62
.LASFDE62:
	.4byte	.Lframe0
	.4byte	.LFB82
	.4byte	.LFE82-.LFB82
	.align	2
.LEFDE62:
.LSFDE64:
	.4byte	.LEFDE64-.LASFDE64
.LASFDE64:
	.4byte	.Lframe0
	.4byte	.LFB83
	.4byte	.LFE83-.LFB83
	.align	2
.LEFDE64:
.LSFDE66:
	.4byte	.LEFDE66-.LASFDE66
.LASFDE66:
	.4byte	.Lframe0
	.4byte	.LFB84
	.4byte	.LFE84-.LFB84
	.align	2
.LEFDE66:
.LSFDE68:
	.4byte	.LEFDE68-.LASFDE68
.LASFDE68:
	.4byte	.Lframe0
	.4byte	.LFB85
	.4byte	.LFE85-.LFB85
	.align	2
.LEFDE68:
.LSFDE70:
	.4byte	.LEFDE70-.LASFDE70
.LASFDE70:
	.4byte	.Lframe0
	.4byte	.LFB86
	.4byte	.LFE86-.LFB86
	.align	2
.LEFDE70:
.LSFDE72:
	.4byte	.LEFDE72-.LASFDE72
.LASFDE72:
	.4byte	.Lframe0
	.4byte	.LFB87
	.4byte	.LFE87-.LFB87
	.align	2
.LEFDE72:
.LSFDE74:
	.4byte	.LEFDE74-.LASFDE74
.LASFDE74:
	.4byte	.Lframe0
	.4byte	.LFB88
	.4byte	.LFE88-.LFB88
	.align	2
.LEFDE74:
.LSFDE76:
	.4byte	.LEFDE76-.LASFDE76
.LASFDE76:
	.4byte	.Lframe0
	.4byte	.LFB89
	.4byte	.LFE89-.LFB89
	.align	2
.LEFDE76:
.LSFDE78:
	.4byte	.LEFDE78-.LASFDE78
.LASFDE78:
	.4byte	.Lframe0
	.4byte	.LFB90
	.4byte	.LFE90-.LFB90
	.align	2
.LEFDE78:
.LSFDE80:
	.4byte	.LEFDE80-.LASFDE80
.LASFDE80:
	.4byte	.Lframe0
	.4byte	.LFB91
	.4byte	.LFE91-.LFB91
	.align	2
.LEFDE80:
.LSFDE82:
	.4byte	.LEFDE82-.LASFDE82
.LASFDE82:
	.4byte	.Lframe0
	.4byte	.LFB92
	.4byte	.LFE92-.LFB92
	.align	2
.LEFDE82:
.LSFDE84:
	.4byte	.LEFDE84-.LASFDE84
.LASFDE84:
	.4byte	.Lframe0
	.4byte	.LFB93
	.4byte	.LFE93-.LFB93
	.align	2
.LEFDE84:
.LSFDE86:
	.4byte	.LEFDE86-.LASFDE86
.LASFDE86:
	.4byte	.Lframe0
	.4byte	.LFB94
	.4byte	.LFE94-.LFB94
	.byte	0x4
	.4byte	.LCFI1-.LFB94
	.byte	0xe
	.uleb128 0x4
	.byte	0x8e
	.uleb128 0x1
	.byte	0x4
	.4byte	.LCFI2-.LCFI1
	.byte	0xe
	.uleb128 0x20
	.align	2
.LEFDE86:
.LSFDE88:
	.4byte	.LEFDE88-.LASFDE88
.LASFDE88:
	.4byte	.Lframe0
	.4byte	.LFB95
	.4byte	.LFE95-.LFB95
	.byte	0x4
	.4byte	.LCFI3-.LFB95
	.byte	0xe
	.uleb128 0x8
	.align	2
.LEFDE88:
.LSFDE90:
	.4byte	.LEFDE90-.LASFDE90
.LASFDE90:
	.4byte	.Lframe0
	.4byte	.LFB96
	.4byte	.LFE96-.LFB96
	.byte	0x4
	.4byte	.LCFI4-.LFB96
	.byte	0xe
	.uleb128 0x4
	.byte	0x8e
	.uleb128 0x1
	.byte	0x4
	.4byte	.LCFI5-.LCFI4
	.byte	0xe
	.uleb128 0x18
	.align	2
.LEFDE90:
.LSFDE92:
	.4byte	.LEFDE92-.LASFDE92
.LASFDE92:
	.4byte	.Lframe0
	.4byte	.LFB97
	.4byte	.LFE97-.LFB97
	.byte	0x4
	.4byte	.LCFI6-.LFB97
	.byte	0xe
	.uleb128 0x4
	.byte	0x8e
	.uleb128 0x1
	.byte	0x4
	.4byte	.LCFI7-.LCFI6
	.byte	0xe
	.uleb128 0x10
	.align	2
.LEFDE92:
.LSFDE94:
	.4byte	.LEFDE94-.LASFDE94
.LASFDE94:
	.4byte	.Lframe0
	.4byte	.LFB98
	.4byte	.LFE98-.LFB98
	.align	2
.LEFDE94:
.LSFDE96:
	.4byte	.LEFDE96-.LASFDE96
.LASFDE96:
	.4byte	.Lframe0
	.4byte	.LFB99
	.4byte	.LFE99-.LFB99
	.byte	0x4
	.4byte	.LCFI8-.LFB99
	.byte	0xe
	.uleb128 0x4
	.byte	0x8e
	.uleb128 0x1
	.byte	0x4
	.4byte	.LCFI9-.LCFI8
	.byte	0xe
	.uleb128 0x10
	.align	2
.LEFDE96:
.LSFDE98:
	.4byte	.LEFDE98-.LASFDE98
.LASFDE98:
	.4byte	.Lframe0
	.4byte	.LFB100
	.4byte	.LFE100-.LFB100
	.byte	0x4
	.4byte	.LCFI10-.LFB100
	.byte	0xe
	.uleb128 0x8
	.byte	0x84
	.uleb128 0x2
	.byte	0x8e
	.uleb128 0x1
	.align	2
.LEFDE98:
.LSFDE100:
	.4byte	.LEFDE100-.LASFDE100
.LASFDE100:
	.4byte	.Lframe0
	.4byte	.LFB101
	.4byte	.LFE101-.LFB101
	.byte	0x4
	.4byte	.LCFI11-.LFB101
	.byte	0xe
	.uleb128 0x4
	.byte	0x8e
	.uleb128 0x1
	.byte	0x4
	.4byte	.LCFI12-.LCFI11
	.byte	0xe
	.uleb128 0x18
	.align	2
.LEFDE100:
.LSFDE102:
	.4byte	.LEFDE102-.LASFDE102
.LASFDE102:
	.4byte	.Lframe0
	.4byte	.LFB102
	.4byte	.LFE102-.LFB102
	.byte	0x4
	.4byte	.LCFI13-.LFB102
	.byte	0xe
	.uleb128 0x4
	.byte	0x8e
	.uleb128 0x1
	.byte	0x4
	.4byte	.LCFI14-.LCFI13
	.byte	0xe
	.uleb128 0x10
	.align	2
.LEFDE102:
.LSFDE104:
	.4byte	.LEFDE104-.LASFDE104
.LASFDE104:
	.4byte	.Lframe0
	.4byte	.LFB103
	.4byte	.LFE103-.LFB103
	.byte	0x4
	.4byte	.LCFI15-.LFB103
	.byte	0xe
	.uleb128 0x4
	.byte	0x8e
	.uleb128 0x1
	.byte	0x4
	.4byte	.LCFI16-.LCFI15
	.byte	0xe
	.uleb128 0x18
	.align	2
.LEFDE104:
.LSFDE106:
	.4byte	.LEFDE106-.LASFDE106
.LASFDE106:
	.4byte	.Lframe0
	.4byte	.LFB104
	.4byte	.LFE104-.LFB104
	.byte	0x4
	.4byte	.LCFI17-.LFB104
	.byte	0xe
	.uleb128 0x4
	.byte	0x8e
	.uleb128 0x1
	.byte	0x4
	.4byte	.LCFI18-.LCFI17
	.byte	0xe
	.uleb128 0x30
	.align	2
.LEFDE106:
.LSFDE108:
	.4byte	.LEFDE108-.LASFDE108
.LASFDE108:
	.4byte	.Lframe0
	.4byte	.LFB105
	.4byte	.LFE105-.LFB105
	.align	2
.LEFDE108:
.LSFDE110:
	.4byte	.LEFDE110-.LASFDE110
.LASFDE110:
	.4byte	.Lframe0
	.4byte	.LFB106
	.4byte	.LFE106-.LFB106
	.byte	0x4
	.4byte	.LCFI19-.LFB106
	.byte	0xe
	.uleb128 0x4
	.byte	0x8e
	.uleb128 0x1
	.byte	0x4
	.4byte	.LCFI20-.LCFI19
	.byte	0xe
	.uleb128 0x20
	.align	2
.LEFDE110:
.LSFDE112:
	.4byte	.LEFDE112-.LASFDE112
.LASFDE112:
	.4byte	.Lframe0
	.4byte	.LFB107
	.4byte	.LFE107-.LFB107
	.byte	0x4
	.4byte	.LCFI21-.LFB107
	.byte	0xe
	.uleb128 0x4
	.byte	0x8e
	.uleb128 0x1
	.byte	0x4
	.4byte	.LCFI22-.LCFI21
	.byte	0xe
	.uleb128 0x20
	.align	2
.LEFDE112:
.LSFDE114:
	.4byte	.LEFDE114-.LASFDE114
.LASFDE114:
	.4byte	.Lframe0
	.4byte	.LFB108
	.4byte	.LFE108-.LFB108
	.byte	0x4
	.4byte	.LCFI23-.LFB108
	.byte	0xe
	.uleb128 0x8
	.align	2
.LEFDE114:
.LSFDE116:
	.4byte	.LEFDE116-.LASFDE116
.LASFDE116:
	.4byte	.Lframe0
	.4byte	.LFB109
	.4byte	.LFE109-.LFB109
	.byte	0x4
	.4byte	.LCFI24-.LFB109
	.byte	0xe
	.uleb128 0x4
	.byte	0x8e
	.uleb128 0x1
	.byte	0x4
	.4byte	.LCFI25-.LCFI24
	.byte	0xe
	.uleb128 0x18
	.align	2
.LEFDE116:
.LSFDE118:
	.4byte	.LEFDE118-.LASFDE118
.LASFDE118:
	.4byte	.Lframe0
	.4byte	.LFB110
	.4byte	.LFE110-.LFB110
	.align	2
.LEFDE118:
.LSFDE120:
	.4byte	.LEFDE120-.LASFDE120
.LASFDE120:
	.4byte	.Lframe0
	.4byte	.LFB111
	.4byte	.LFE111-.LFB111
	.align	2
.LEFDE120:
	.text
.Letext0:
	.file 4 "D:/Program Files/SEGGER/SEGGER Embedded Studio for ARM 3.34b/include/stdint.h"
	.file 5 "D:/Program Files/SEGGER/SEGGER Embedded Studio for ARM 3.34b/include/__crossworks.h"
	.file 6 "./../../../../../../components/toolchain/system_nrf51.h"
	.file 7 "./../../../../../../components/device/nrf51.h"
	.file 8 "./../../../../../../components/libraries/util/app_util.h"
	.file 9 "E:\\personnelpositioning\\core\\nRF5_SDK_12.3.0_d7731ad\\components\\libraries\\fstorage\\fstorage.h"